(lp0
(dp1
S'PR'
p2
S'PR_NULL'
p3
sS'HEX'
p4
S'0x0000'
p5
sS'PT'
p6
S'PT_NULL'
p7
sa(dp8
g2
S'PR_ACKNOWLEDGEMENT_MODE'
p9
sg4
S'0x0001'
p10
sg6
S'PT_LONG'
p11
sa(dp12
g2
S'PR_ALTERNATE_RECIPIENT_ALLOWED'
p13
sg4
S'0x0002'
p14
sg6
S'PT_BOOLEAN'
p15
sa(dp16
g2
S'PR_AUTHORIZING_USERS'
p17
sg4
S'0x0003'
p18
sg6
S'PT_BINARY'
p19
sa(dp20
g2
S'PR_AUTO_FORWARD_COMMENT'
p21
sg4
S'0x0004'
p22
sg6
S'PT_TSTRING'
p23
sa(dp24
g2
S'PR_AUTO_FORWARD_COMMENT_W'
p25
sg4
S'0x0004'
p26
sg6
S'PT_UNICODE'
p27
sa(dp28
g2
S'PR_AUTO_FORWARD_COMMENT_A'
p29
sg4
S'0x0004'
p30
sg6
S'PT_STRING8'
p31
sa(dp32
g2
S'PR_AUTO_FORWARDED'
p33
sg4
S'0x0005'
p34
sg6
S'PT_BOOLEAN'
p35
sa(dp36
g2
S'PR_CONTENT_CONFIDENTIALITY_ALGORITHM_ID'
p37
sg4
S'0x0006'
p38
sg6
S'PT_BINARY'
p39
sa(dp40
g2
S'PR_CONTENT_CORRELATOR'
p41
sg4
S'0x0007'
p42
sg6
S'PT_BINARY'
p43
sa(dp44
g2
S'PR_CONTENT_IDENTIFIER'
p45
sg4
S'0x0008'
p46
sg6
S'PT_TSTRING'
p47
sa(dp48
g2
S'PR_CONTENT_IDENTIFIER_W'
p49
sg4
S'0x0008'
p50
sg6
S'PT_UNICODE'
p51
sa(dp52
g2
S'PR_CONTENT_IDENTIFIER_A'
p53
sg4
S'0x0008'
p54
sg6
S'PT_STRING8'
p55
sa(dp56
g2
S'PR_CONTENT_LENGTH'
p57
sg4
S'0x0009'
p58
sg6
S'PT_LONG'
p59
sa(dp60
g2
S'PR_CONTENT_RETURN_REQUESTED'
p61
sg4
S'0x000A'
p62
sg6
S'PT_BOOLEAN'
p63
sa(dp64
g2
S'PR_CONVERSATION_KEY'
p65
sg4
S'0x000B'
p66
sg6
S'PT_BINARY'
p67
sa(dp68
g2
S'PR_CONVERSION_EITS'
p69
sg4
S'0x000C'
p70
sg6
S'PT_BINARY'
p71
sa(dp72
g2
S'PR_CONVERSION_WITH_LOSS_PROHIBITED'
p73
sg4
S'0x000D'
p74
sg6
S'PT_BOOLEAN'
p75
sa(dp76
g2
S'PR_CONVERTED_EITS'
p77
sg4
S'0x000E'
p78
sg6
S'PT_BINARY'
p79
sa(dp80
g2
S'PR_DEFERRED_DELIVERY_TIME'
p81
sg4
S'0x000F'
p82
sg6
S'PT_SYSTIME'
p83
sa(dp84
g2
S'PR_DELIVER_TIME'
p85
sg4
S'0x0010'
p86
sg6
S'PT_SYSTIME'
p87
sa(dp88
g2
S'PR_DISCARD_REASON'
p89
sg4
S'0x0011'
p90
sg6
S'PT_LONG'
p91
sa(dp92
g2
S'PR_DISCLOSURE_OF_RECIPIENTS'
p93
sg4
S'0x0012'
p94
sg6
S'PT_BOOLEAN'
p95
sa(dp96
g2
S'PR_DL_EXPANSION_HISTORY'
p97
sg4
S'0x0013'
p98
sg6
S'PT_BINARY'
p99
sa(dp100
g2
S'PR_DL_EXPANSION_PROHIBITED'
p101
sg4
S'0x0014'
p102
sg6
S'PT_BOOLEAN'
p103
sa(dp104
g2
S'PR_EXPIRY_TIME'
p105
sg4
S'0x0015'
p106
sg6
S'PT_SYSTIME'
p107
sa(dp108
g2
S'PR_IMPLICIT_CONVERSION_PROHIBITED'
p109
sg4
S'0x0016'
p110
sg6
S'PT_BOOLEAN'
p111
sa(dp112
g2
S'PR_IMPORTANCE'
p113
sg4
S'0x0017'
p114
sg6
S'PT_LONG'
p115
sa(dp116
g2
S'PR_IPM_ID'
p117
sg4
S'0x0018'
p118
sg6
S'PT_BINARY'
p119
sa(dp120
g2
S'PR_LATEST_DELIVERY_TIME'
p121
sg4
S'0x0019'
p122
sg6
S'PT_SYSTIME'
p123
sa(dp124
g2
S'PR_MESSAGE_CLASS'
p125
sg4
S'0x001A'
p126
sg6
S'PT_TSTRING'
p127
sa(dp128
g2
S'PR_MESSAGE_CLASS_W'
p129
sg4
S'0x001A'
p130
sg6
S'PT_UNICODE'
p131
sa(dp132
g2
S'PR_MESSAGE_CLASS_A'
p133
sg4
S'0x001A'
p134
sg6
S'PT_STRING8'
p135
sa(dp136
g2
S'PR_MESSAGE_DELIVERY_ID'
p137
sg4
S'0x001B'
p138
sg6
S'PT_BINARY'
p139
sa(dp140
g2
S'PR_MESSAGE_SECURITY_LABEL'
p141
sg4
S'0x001E'
p142
sg6
S'PT_BINARY'
p143
sa(dp144
g2
S'PR_OBSOLETED_IPMS'
p145
sg4
S'0x001F'
p146
sg6
S'PT_BINARY'
p147
sa(dp148
g2
S'PR_ORIGINALLY_INTENDED_RECIPIENT_NAME'
p149
sg4
S'0x0020'
p150
sg6
S'PT_BINARY'
p151
sa(dp152
g2
S'PR_ORIGINAL_EITS'
p153
sg4
S'0x0021'
p154
sg6
S'PT_BINARY'
p155
sa(dp156
g2
S'PR_ORIGINATOR_CERTIFICATE'
p157
sg4
S'0x0022'
p158
sg6
S'PT_BINARY'
p159
sa(dp160
g2
S'PR_ORIGINATOR_DELIVERY_REPORT_REQUESTED'
p161
sg4
S'0x0023'
p162
sg6
S'PT_BOOLEAN'
p163
sa(dp164
g2
S'PR_ORIGINATOR_RETURN_ADDRESS'
p165
sg4
S'0x0024'
p166
sg6
S'PT_BINARY'
p167
sa(dp168
g2
S'PR_PARENT_KEY'
p169
sg4
S'0x0025'
p170
sg6
S'PT_BINARY'
p171
sa(dp172
g2
S'PR_PRIORITY'
p173
sg4
S'0x0026'
p174
sg6
S'PT_LONG'
p175
sa(dp176
g2
S'PR_ORIGIN_CHECK'
p177
sg4
S'0x0027'
p178
sg6
S'PT_BINARY'
p179
sa(dp180
g2
S'PR_PROOF_OF_SUBMISSION_REQUESTED'
p181
sg4
S'0x0028'
p182
sg6
S'PT_BOOLEAN'
p183
sa(dp184
g2
S'PR_READ_RECEIPT_REQUESTED'
p185
sg4
S'0x0029'
p186
sg6
S'PT_BOOLEAN'
p187
sa(dp188
g2
S'PR_RECEIPT_TIME'
p189
sg4
S'0x002A'
p190
sg6
S'PT_SYSTIME'
p191
sa(dp192
g2
S'PR_RECIPIENT_REASSIGNMENT_PROHIBITED'
p193
sg4
S'0x002B'
p194
sg6
S'PT_BOOLEAN'
p195
sa(dp196
g2
S'PR_REDIRECTION_HISTORY'
p197
sg4
S'0x002C'
p198
sg6
S'PT_BINARY'
p199
sa(dp200
g2
S'PR_RELATED_IPMS'
p201
sg4
S'0x002D'
p202
sg6
S'PT_BINARY'
p203
sa(dp204
g2
S'PR_ORIGINAL_SENSITIVITY'
p205
sg4
S'0x002E'
p206
sg6
S'PT_LONG'
p207
sa(dp208
g2
S'PR_LANGUAGES'
p209
sg4
S'0x002F'
p210
sg6
S'PT_TSTRING'
p211
sa(dp212
g2
S'PR_LANGUAGES_W'
p213
sg4
S'0x002F'
p214
sg6
S'PT_UNICODE'
p215
sa(dp216
g2
S'PR_LANGUAGES_A'
p217
sg4
S'0x002F'
p218
sg6
S'PT_STRING8'
p219
sa(dp220
g2
S'PR_REPLY_TIME'
p221
sg4
S'0x0030'
p222
sg6
S'PT_SYSTIME'
p223
sa(dp224
g2
S'PR_REPORT_TAG'
p225
sg4
S'0x0031'
p226
sg6
S'PT_BINARY'
p227
sa(dp228
g2
S'PR_REPORT_TIME'
p229
sg4
S'0x0032'
p230
sg6
S'PT_SYSTIME'
p231
sa(dp232
g2
S'PR_RETURNED_IPM'
p233
sg4
S'0x0033'
p234
sg6
S'PT_BOOLEAN'
p235
sa(dp236
g2
S'PR_SECURITY'
p237
sg4
S'0x0034'
p238
sg6
S'PT_LONG'
p239
sa(dp240
g2
S'PR_INCOMPLETE_COPY'
p241
sg4
S'0x0035'
p242
sg6
S'PT_BOOLEAN'
p243
sa(dp244
g2
S'PR_SENSITIVITY'
p245
sg4
S'0x0036'
p246
sg6
S'PT_LONG'
p247
sa(dp248
g2
S'PR_SUBJECT'
p249
sg4
S'0x0037'
p250
sg6
S'PT_TSTRING'
p251
sa(dp252
g2
S'PR_SUBJECT_W'
p253
sg4
S'0x0037'
p254
sg6
S'PT_UNICODE'
p255
sa(dp256
g2
S'PR_SUBJECT_A'
p257
sg4
S'0x0037'
p258
sg6
S'PT_STRING8'
p259
sa(dp260
g2
S'PR_SUBJECT_IPM'
p261
sg4
S'0x0038'
p262
sg6
S'PT_BINARY'
p263
sa(dp264
g2
S'PR_CLIENT_SUBMIT_TIME'
p265
sg4
S'0x0039'
p266
sg6
S'PT_SYSTIME'
p267
sa(dp268
g2
S'PR_REPORT_NAME'
p269
sg4
S'0x003A'
p270
sg6
S'PT_TSTRING'
p271
sa(dp272
g2
S'PR_REPORT_NAME_W'
p273
sg4
S'0x003A'
p274
sg6
S'PT_UNICODE'
p275
sa(dp276
g2
S'PR_REPORT_NAME_A'
p277
sg4
S'0x003A'
p278
sg6
S'PT_STRING8'
p279
sa(dp280
g2
S'PR_SENT_REPRESENTING_SEARCH_KEY'
p281
sg4
S'0x003B'
p282
sg6
S'PT_BINARY'
p283
sa(dp284
g2
S'PR_X400_CONTENT_TYPE'
p285
sg4
S'0x003C'
p286
sg6
S'PT_BINARY'
p287
sa(dp288
g2
S'PR_SUBJECT_PREFIX'
p289
sg4
S'0x003D'
p290
sg6
S'PT_TSTRING'
p291
sa(dp292
g2
S'PR_SUBJECT_PREFIX_W'
p293
sg4
S'0x003D'
p294
sg6
S'PT_UNICODE'
p295
sa(dp296
g2
S'PR_SUBJECT_PREFIX_A'
p297
sg4
S'0x003D'
p298
sg6
S'PT_STRING8'
p299
sa(dp300
g2
S'PR_NON_RECEIPT_REASON'
p301
sg4
S'0x003E'
p302
sg6
S'PT_LONG'
p303
sa(dp304
g2
S'PR_RECEIVED_BY_ENTRYID'
p305
sg4
S'0x003F'
p306
sg6
S'PT_BINARY'
p307
sa(dp308
g2
S'PR_RECEIVED_BY_NAME'
p309
sg4
S'0x0040'
p310
sg6
S'PT_TSTRING'
p311
sa(dp312
g2
S'PR_RECEIVED_BY_NAME_W'
p313
sg4
S'0x0040'
p314
sg6
S'PT_UNICODE'
p315
sa(dp316
g2
S'PR_RECEIVED_BY_NAME_A'
p317
sg4
S'0x0040'
p318
sg6
S'PT_STRING8'
p319
sa(dp320
g2
S'PR_SENT_REPRESENTING_ENTRYID'
p321
sg4
S'0x0041'
p322
sg6
S'PT_BINARY'
p323
sa(dp324
g2
S'PR_SENT_REPRESENTING_NAME'
p325
sg4
S'0x0042'
p326
sg6
S'PT_TSTRING'
p327
sa(dp328
g2
S'PR_SENT_REPRESENTING_NAME_W'
p329
sg4
S'0x0042'
p330
sg6
S'PT_UNICODE'
p331
sa(dp332
g2
S'PR_SENT_REPRESENTING_NAME_A'
p333
sg4
S'0x0042'
p334
sg6
S'PT_STRING8'
p335
sa(dp336
g2
S'PR_RCVD_REPRESENTING_ENTRYID'
p337
sg4
S'0x0043'
p338
sg6
S'PT_BINARY'
p339
sa(dp340
g2
S'PR_RCVD_REPRESENTING_NAME'
p341
sg4
S'0x0044'
p342
sg6
S'PT_TSTRING'
p343
sa(dp344
g2
S'PR_RCVD_REPRESENTING_NAME_W'
p345
sg4
S'0x0044'
p346
sg6
S'PT_UNICODE'
p347
sa(dp348
g2
S'PR_RCVD_REPRESENTING_NAME_A'
p349
sg4
S'0x0044'
p350
sg6
S'PT_STRING8'
p351
sa(dp352
g2
S'PR_REPORT_ENTRYID'
p353
sg4
S'0x0045'
p354
sg6
S'PT_BINARY'
p355
sa(dp356
g2
S'PR_READ_RECEIPT_ENTRYID'
p357
sg4
S'0x0046'
p358
sg6
S'PT_BINARY'
p359
sa(dp360
g2
S'PR_MESSAGE_SUBMISSION_ID'
p361
sg4
S'0x0047'
p362
sg6
S'PT_BINARY'
p363
sa(dp364
g2
S'PR_PROVIDER_SUBMIT_TIME'
p365
sg4
S'0x0048'
p366
sg6
S'PT_SYSTIME'
p367
sa(dp368
g2
S'PR_ORIGINAL_SUBJECT'
p369
sg4
S'0x0049'
p370
sg6
S'PT_TSTRING'
p371
sa(dp372
g2
S'PR_ORIGINAL_SUBJECT_W'
p373
sg4
S'0x0049'
p374
sg6
S'PT_UNICODE'
p375
sa(dp376
g2
S'PR_ORIGINAL_SUBJECT_A'
p377
sg4
S'0x0049'
p378
sg6
S'PT_STRING8'
p379
sa(dp380
g2
S'PR_DISC_VAL'
p381
sg4
S'0x004A'
p382
sg6
S'PT_BOOLEAN'
p383
sa(dp384
g2
S'PR_ORIG_MESSAGE_CLASS'
p385
sg4
S'0x004B'
p386
sg6
S'PT_TSTRING'
p387
sa(dp388
g2
S'PR_ORIG_MESSAGE_CLASS_W'
p389
sg4
S'0x004B'
p390
sg6
S'PT_UNICODE'
p391
sa(dp392
g2
S'PR_ORIG_MESSAGE_CLASS_A'
p393
sg4
S'0x004B'
p394
sg6
S'PT_STRING8'
p395
sa(dp396
g2
S'PR_ORIGINAL_AUTHOR_ENTRYID'
p397
sg4
S'0x004C'
p398
sg6
S'PT_BINARY'
p399
sa(dp400
g2
S'PR_ORIGINAL_AUTHOR_NAME'
p401
sg4
S'0x004D'
p402
sg6
S'PT_TSTRING'
p403
sa(dp404
g2
S'PR_ORIGINAL_AUTHOR_NAME_W'
p405
sg4
S'0x004D'
p406
sg6
S'PT_UNICODE'
p407
sa(dp408
g2
S'PR_ORIGINAL_AUTHOR_NAME_A'
p409
sg4
S'0x004D'
p410
sg6
S'PT_STRING8'
p411
sa(dp412
g2
S'PR_ORIGINAL_SUBMIT_TIME'
p413
sg4
S'0x004E'
p414
sg6
S'PT_SYSTIME'
p415
sa(dp416
g2
S'PR_REPLY_RECIPIENT_ENTRIES'
p417
sg4
S'0x004F'
p418
sg6
S'PT_BINARY'
p419
sa(dp420
g2
S'PR_REPLY_RECIPIENT_NAMES'
p421
sg4
S'0x0050'
p422
sg6
S'PT_TSTRING'
p423
sa(dp424
g2
S'PR_REPLY_RECIPIENT_NAMES_W'
p425
sg4
S'0x0050'
p426
sg6
S'PT_UNICODE'
p427
sa(dp428
g2
S'PR_REPLY_RECIPIENT_NAMES_A'
p429
sg4
S'0x0050'
p430
sg6
S'PT_STRING8'
p431
sa(dp432
g2
S'PR_RECEIVED_BY_SEARCH_KEY'
p433
sg4
S'0x0051'
p434
sg6
S'PT_BINARY'
p435
sa(dp436
g2
S'PR_RCVD_REPRESENTING_SEARCH_KEY'
p437
sg4
S'0x0052'
p438
sg6
S'PT_BINARY'
p439
sa(dp440
g2
S'PR_READ_RECEIPT_SEARCH_KEY'
p441
sg4
S'0x0053'
p442
sg6
S'PT_BINARY'
p443
sa(dp444
g2
S'PR_REPORT_SEARCH_KEY'
p445
sg4
S'0x0054'
p446
sg6
S'PT_BINARY'
p447
sa(dp448
g2
S'PR_ORIGINAL_DELIVERY_TIME'
p449
sg4
S'0x0055'
p450
sg6
S'PT_SYSTIME'
p451
sa(dp452
g2
S'PR_ORIGINAL_AUTHOR_SEARCH_KEY'
p453
sg4
S'0x0056'
p454
sg6
S'PT_BINARY'
p455
sa(dp456
g2
S'PR_MESSAGE_TO_ME'
p457
sg4
S'0x0057'
p458
sg6
S'PT_BOOLEAN'
p459
sa(dp460
g2
S'PR_MESSAGE_CC_ME'
p461
sg4
S'0x0058'
p462
sg6
S'PT_BOOLEAN'
p463
sa(dp464
g2
S'PR_MESSAGE_RECIP_ME'
p465
sg4
S'0x0059'
p466
sg6
S'PT_BOOLEAN'
p467
sa(dp468
g2
S'PR_ORIGINAL_SENDER_NAME'
p469
sg4
S'0x005A'
p470
sg6
S'PT_TSTRING'
p471
sa(dp472
g2
S'PR_ORIGINAL_SENDER_NAME_W'
p473
sg4
S'0x005A'
p474
sg6
S'PT_UNICODE'
p475
sa(dp476
g2
S'PR_ORIGINAL_SENDER_NAME_A'
p477
sg4
S'0x005A'
p478
sg6
S'PT_STRING8'
p479
sa(dp480
g2
S'PR_ORIGINAL_SENDER_ENTRYID'
p481
sg4
S'0x005B'
p482
sg6
S'PT_BINARY'
p483
sa(dp484
g2
S'PR_ORIGINAL_SENDER_SEARCH_KEY'
p485
sg4
S'0x005C'
p486
sg6
S'PT_BINARY'
p487
sa(dp488
g2
S'PR_ORIGINAL_SENT_REPRESENTING_NAME'
p489
sg4
S'0x005D'
p490
sg6
S'PT_TSTRING'
p491
sa(dp492
g2
S'PR_ORIGINAL_SENT_REPRESENTING_NAME_W'
p493
sg4
S'0x005D'
p494
sg6
S'PT_UNICODE'
p495
sa(dp496
g2
S'PR_ORIGINAL_SENT_REPRESENTING_NAME_A'
p497
sg4
S'0x005D'
p498
sg6
S'PT_STRING8'
p499
sa(dp500
g2
S'PR_ORIGINAL_SENT_REPRESENTING_ENTRYID'
p501
sg4
S'0x005E'
p502
sg6
S'PT_BINARY'
p503
sa(dp504
g2
S'PR_ORIGINAL_SENT_REPRESENTING_SEARCH_KEY'
p505
sg4
S'0x005F'
p506
sg6
S'PT_BINARY'
p507
sa(dp508
g2
S'PR_START_DATE'
p509
sg4
S'0x0060'
p510
sg6
S'PT_SYSTIME'
p511
sa(dp512
g2
S'PR_END_DATE'
p513
sg4
S'0x0061'
p514
sg6
S'PT_SYSTIME'
p515
sa(dp516
g2
S'PR_OWNER_APPT_ID'
p517
sg4
S'0x0062'
p518
sg6
S'PT_LONG'
p519
sa(dp520
g2
S'PR_RESPONSE_REQUESTED'
p521
sg4
S'0x0063'
p522
sg6
S'PT_BOOLEAN'
p523
sa(dp524
g2
S'PR_SENT_REPRESENTING_ADDRTYPE'
p525
sg4
S'0x0064'
p526
sg6
S'PT_TSTRING'
p527
sa(dp528
g2
S'PR_SENT_REPRESENTING_ADDRTYPE_W'
p529
sg4
S'0x0064'
p530
sg6
S'PT_UNICODE'
p531
sa(dp532
g2
S'PR_SENT_REPRESENTING_ADDRTYPE_A'
p533
sg4
S'0x0064'
p534
sg6
S'PT_STRING8'
p535
sa(dp536
g2
S'PR_SENT_REPRESENTING_EMAIL_ADDRESS'
p537
sg4
S'0x0065'
p538
sg6
S'PT_TSTRING'
p539
sa(dp540
g2
S'PR_SENT_REPRESENTING_EMAIL_ADDRESS_W'
p541
sg4
S'0x0065'
p542
sg6
S'PT_UNICODE'
p543
sa(dp544
g2
S'PR_SENT_REPRESENTING_EMAIL_ADDRESS_A'
p545
sg4
S'0x0065'
p546
sg6
S'PT_STRING8'
p547
sa(dp548
g2
S'PR_ORIGINAL_SENDER_ADDRTYPE'
p549
sg4
S'0x0066'
p550
sg6
S'PT_TSTRING'
p551
sa(dp552
g2
S'PR_ORIGINAL_SENDER_ADDRTYPE_W'
p553
sg4
S'0x0066'
p554
sg6
S'PT_UNICODE'
p555
sa(dp556
g2
S'PR_ORIGINAL_SENDER_ADDRTYPE_A'
p557
sg4
S'0x0066'
p558
sg6
S'PT_STRING8'
p559
sa(dp560
g2
S'PR_ORIGINAL_SENDER_EMAIL_ADDRESS'
p561
sg4
S'0x0067'
p562
sg6
S'PT_TSTRING'
p563
sa(dp564
g2
S'PR_ORIGINAL_SENDER_EMAIL_ADDRESS_W'
p565
sg4
S'0x0067'
p566
sg6
S'PT_UNICODE'
p567
sa(dp568
g2
S'PR_ORIGINAL_SENDER_EMAIL_ADDRESS_A'
p569
sg4
S'0x0067'
p570
sg6
S'PT_STRING8'
p571
sa(dp572
g2
S'PR_ORIGINAL_SENT_REPRESENTING_ADDRTYPE'
p573
sg4
S'0x0068'
p574
sg6
S'PT_TSTRING'
p575
sa(dp576
g2
S'PR_ORIGINAL_SENT_REPRESENTING_ADDRTYPE_W'
p577
sg4
S'0x0068'
p578
sg6
S'PT_UNICODE'
p579
sa(dp580
g2
S'PR_ORIGINAL_SENT_REPRESENTING_ADDRTYPE_A'
p581
sg4
S'0x0068'
p582
sg6
S'PT_STRING8'
p583
sa(dp584
g2
S'PR_ORIGINAL_SENT_REPRESENTING_EMAIL_ADDRESS'
p585
sg4
S'0x0069'
p586
sg6
S'PT_TSTRING'
p587
sa(dp588
g2
S'PR_ORIGINAL_SENT_REPRESENTING_EMAIL_ADDRESS_W'
p589
sg4
S'0x0069'
p590
sg6
S'PT_UNICODE'
p591
sa(dp592
g2
S'PR_ORIGINAL_SENT_REPRESENTING_EMAIL_ADDRESS_A'
p593
sg4
S'0x0069'
p594
sg6
S'PT_STRING8'
p595
sa(dp596
g2
S'PR_CONVERSATION_TOPIC'
p597
sg4
S'0x0070'
p598
sg6
S'PT_TSTRING'
p599
sa(dp600
g2
S'PR_CONVERSATION_TOPIC_W'
p601
sg4
S'0x0070'
p602
sg6
S'PT_UNICODE'
p603
sa(dp604
g2
S'PR_CONVERSATION_TOPIC_A'
p605
sg4
S'0x0070'
p606
sg6
S'PT_STRING8'
p607
sa(dp608
g2
S'PR_CONVERSATION_INDEX'
p609
sg4
S'0x0071'
p610
sg6
S'PT_BINARY'
p611
sa(dp612
g2
S'PR_ORIGINAL_DISPLAY_BCC'
p613
sg4
S'0x0072'
p614
sg6
S'PT_TSTRING'
p615
sa(dp616
g2
S'PR_ORIGINAL_DISPLAY_BCC_W'
p617
sg4
S'0x0072'
p618
sg6
S'PT_UNICODE'
p619
sa(dp620
g2
S'PR_ORIGINAL_DISPLAY_BCC_A'
p621
sg4
S'0x0072'
p622
sg6
S'PT_STRING8'
p623
sa(dp624
g2
S'PR_ORIGINAL_DISPLAY_CC'
p625
sg4
S'0x0073'
p626
sg6
S'PT_TSTRING'
p627
sa(dp628
g2
S'PR_ORIGINAL_DISPLAY_CC_W'
p629
sg4
S'0x0073'
p630
sg6
S'PT_UNICODE'
p631
sa(dp632
g2
S'PR_ORIGINAL_DISPLAY_CC_A'
p633
sg4
S'0x0073'
p634
sg6
S'PT_STRING8'
p635
sa(dp636
g2
S'PR_ORIGINAL_DISPLAY_TO'
p637
sg4
S'0x0074'
p638
sg6
S'PT_TSTRING'
p639
sa(dp640
g2
S'PR_ORIGINAL_DISPLAY_TO_W'
p641
sg4
S'0x0074'
p642
sg6
S'PT_UNICODE'
p643
sa(dp644
g2
S'PR_ORIGINAL_DISPLAY_TO_A'
p645
sg4
S'0x0074'
p646
sg6
S'PT_STRING8'
p647
sa(dp648
g2
S'PR_RECEIVED_BY_ADDRTYPE'
p649
sg4
S'0x0075'
p650
sg6
S'PT_TSTRING'
p651
sa(dp652
g2
S'PR_RECEIVED_BY_ADDRTYPE_W'
p653
sg4
S'0x0075'
p654
sg6
S'PT_UNICODE'
p655
sa(dp656
g2
S'PR_RECEIVED_BY_ADDRTYPE_A'
p657
sg4
S'0x0075'
p658
sg6
S'PT_STRING8'
p659
sa(dp660
g2
S'PR_RECEIVED_BY_EMAIL_ADDRESS'
p661
sg4
S'0x0076'
p662
sg6
S'PT_TSTRING'
p663
sa(dp664
g2
S'PR_RECEIVED_BY_EMAIL_ADDRESS_W'
p665
sg4
S'0x0076'
p666
sg6
S'PT_UNICODE'
p667
sa(dp668
g2
S'PR_RECEIVED_BY_EMAIL_ADDRESS_A'
p669
sg4
S'0x0076'
p670
sg6
S'PT_STRING8'
p671
sa(dp672
g2
S'PR_RCVD_REPRESENTING_ADDRTYPE'
p673
sg4
S'0x0077'
p674
sg6
S'PT_TSTRING'
p675
sa(dp676
g2
S'PR_RCVD_REPRESENTING_ADDRTYPE_W'
p677
sg4
S'0x0077'
p678
sg6
S'PT_UNICODE'
p679
sa(dp680
g2
S'PR_RCVD_REPRESENTING_ADDRTYPE_A'
p681
sg4
S'0x0077'
p682
sg6
S'PT_STRING8'
p683
sa(dp684
g2
S'PR_RCVD_REPRESENTING_EMAIL_ADDRESS'
p685
sg4
S'0x0078'
p686
sg6
S'PT_TSTRING'
p687
sa(dp688
g2
S'PR_RCVD_REPRESENTING_EMAIL_ADDRESS_W'
p689
sg4
S'0x0078'
p690
sg6
S'PT_UNICODE'
p691
sa(dp692
g2
S'PR_RCVD_REPRESENTING_EMAIL_ADDRESS_A'
p693
sg4
S'0x0078'
p694
sg6
S'PT_STRING8'
p695
sa(dp696
g2
S'PR_ORIGINAL_AUTHOR_ADDRTYPE'
p697
sg4
S'0x0079'
p698
sg6
S'PT_TSTRING'
p699
sa(dp700
g2
S'PR_ORIGINAL_AUTHOR_ADDRTYPE_W'
p701
sg4
S'0x0079'
p702
sg6
S'PT_UNICODE'
p703
sa(dp704
g2
S'PR_ORIGINAL_AUTHOR_ADDRTYPE_A'
p705
sg4
S'0x0079'
p706
sg6
S'PT_STRING8'
p707
sa(dp708
g2
S'PR_ORIGINAL_AUTHOR_EMAIL_ADDRESS'
p709
sg4
S'0x007A'
p710
sg6
S'PT_TSTRING'
p711
sa(dp712
g2
S'PR_ORIGINAL_AUTHOR_EMAIL_ADDRESS_W'
p713
sg4
S'0x007A'
p714
sg6
S'PT_UNICODE'
p715
sa(dp716
g2
S'PR_ORIGINAL_AUTHOR_EMAIL_ADDRESS_A'
p717
sg4
S'0x007A'
p718
sg6
S'PT_STRING8'
p719
sa(dp720
g2
S'PR_ORIGINALLY_INTENDED_RECIP_ADDRTYPE'
p721
sg4
S'0x007B'
p722
sg6
S'PT_TSTRING'
p723
sa(dp724
g2
S'PR_ORIGINALLY_INTENDED_RECIP_ADDRTYPE_W'
p725
sg4
S'0x007B'
p726
sg6
S'PT_UNICODE'
p727
sa(dp728
g2
S'PR_ORIGINALLY_INTENDED_RECIP_ADDRTYPE_A'
p729
sg4
S'0x007B'
p730
sg6
S'PT_STRING8'
p731
sa(dp732
g2
S'PR_ORIGINALLY_INTENDED_RECIP_EMAIL_ADDRESS'
p733
sg4
S'0x007C'
p734
sg6
S'PT_TSTRING'
p735
sa(dp736
g2
S'PR_ORIGINALLY_INTENDED_RECIP_EMAIL_ADDRESS_W'
p737
sg4
S'0x007C'
p738
sg6
S'PT_UNICODE'
p739
sa(dp740
g2
S'PR_ORIGINALLY_INTENDED_RECIP_EMAIL_ADDRESS_A'
p741
sg4
S'0x007C'
p742
sg6
S'PT_STRING8'
p743
sa(dp744
g2
S'PR_BODY'
p745
sg4
S'0x1000'
p746
sg6
S'PT_TSTRING'
p747
sa(dp748
g2
S'PR_BODY_W'
p749
sg4
S'0x1000'
p750
sg6
S'PT_UNICODE'
p751
sa(dp752
g2
S'PR_BODY_A'
p753
sg4
S'0x1000'
p754
sg6
S'PT_STRING8'
p755
sa(dp756
g2
S'PR_REPORT_TEXT'
p757
sg4
S'0x1001'
p758
sg6
S'PT_TSTRING'
p759
sa(dp760
g2
S'PR_REPORT_TEXT_W'
p761
sg4
S'0x1001'
p762
sg6
S'PT_UNICODE'
p763
sa(dp764
g2
S'PR_REPORT_TEXT_A'
p765
sg4
S'0x1001'
p766
sg6
S'PT_STRING8'
p767
sa(dp768
g2
S'PR_ORIGINATOR_AND_DL_EXPANSION_HISTORY'
p769
sg4
S'0x1002'
p770
sg6
S'PT_BINARY'
p771
sa(dp772
g2
S'PR_REPORTING_DL_NAME'
p773
sg4
S'0x1003'
p774
sg6
S'PT_BINARY'
p775
sa(dp776
g2
S'PR_REPORTING_MTA_CERTIFICATE'
p777
sg4
S'0x1004'
p778
sg6
S'PT_BINARY'
p779
sa(dp780
g2
S'PR_RTF_SYNC_BODY_CRC'
p781
sg4
S'0x1006'
p782
sg6
S'PT_LONG'
p783
sa(dp784
g2
S'PR_RTF_SYNC_BODY_COUNT'
p785
sg4
S'0x1007'
p786
sg6
S'PT_LONG'
p787
sa(dp788
g2
S'PR_RTF_SYNC_BODY_TAG'
p789
sg4
S'0x1008'
p790
sg6
S'PT_TSTRING'
p791
sa(dp792
g2
S'PR_RTF_SYNC_BODY_TAG_W'
p793
sg4
S'0x1008'
p794
sg6
S'PT_UNICODE'
p795
sa(dp796
g2
S'PR_RTF_SYNC_BODY_TAG_A'
p797
sg4
S'0x1008'
p798
sg6
S'PT_STRING8'
p799
sa(dp800
g2
S'PR_RTF_COMPRESSED'
p801
sg4
S'0x1009'
p802
sg6
S'PT_BINARY'
p803
sa(dp804
g2
S'PR_RTF_SYNC_PREFIX_COUNT'
p805
sg4
S'0x1010'
p806
sg6
S'PT_LONG'
p807
sa(dp808
g2
S'PR_RTF_SYNC_TRAILING_COUNT'
p809
sg4
S'0x1011'
p810
sg6
S'PT_LONG'
p811
sa(dp812
g2
S'PR_ORIGINALLY_INTENDED_RECIP_ENTRYID'
p813
sg4
S'0x1012'
p814
sg6
S'PT_BINARY'
p815
sa(dp816
g2
S'PR_CONTENT_INTEGRITY_CHECK'
p817
sg4
S'0x0C00'
p818
sg6
S'PT_BINARY'
p819
sa(dp820
g2
S'PR_EXPLICIT_CONVERSION'
p821
sg4
S'0x0C01'
p822
sg6
S'PT_LONG'
p823
sa(dp824
g2
S'PR_IPM_RETURN_REQUESTED'
p825
sg4
S'0x0C02'
p826
sg6
S'PT_BOOLEAN'
p827
sa(dp828
g2
S'PR_MESSAGE_TOKEN'
p829
sg4
S'0x0C03'
p830
sg6
S'PT_BINARY'
p831
sa(dp832
g2
S'PR_NDR_REASON_CODE'
p833
sg4
S'0x0C04'
p834
sg6
S'PT_LONG'
p835
sa(dp836
g2
S'PR_NDR_DIAG_CODE'
p837
sg4
S'0x0C05'
p838
sg6
S'PT_LONG'
p839
sa(dp840
g2
S'PR_NON_RECEIPT_NOTIFICATION_REQUESTED'
p841
sg4
S'0x0C06'
p842
sg6
S'PT_BOOLEAN'
p843
sa(dp844
g2
S'PR_DELIVERY_POINT'
p845
sg4
S'0x0C07'
p846
sg6
S'PT_LONG'
p847
sa(dp848
g2
S'PR_ORIGINATOR_NON_DELIVERY_REPORT_REQUESTED'
p849
sg4
S'0x0C08'
p850
sg6
S'PT_BOOLEAN'
p851
sa(dp852
g2
S'PR_ORIGINATOR_REQUESTED_ALTERNATE_RECIPIENT'
p853
sg4
S'0x0C09'
p854
sg6
S'PT_BINARY'
p855
sa(dp856
g2
S'PR_PHYSICAL_DELIVERY_BUREAU_FAX_DELIVERY'
p857
sg4
S'0x0C0A'
p858
sg6
S'PT_BOOLEAN'
p859
sa(dp860
g2
S'PR_PHYSICAL_DELIVERY_MODE'
p861
sg4
S'0x0C0B'
p862
sg6
S'PT_LONG'
p863
sa(dp864
g2
S'PR_PHYSICAL_DELIVERY_REPORT_REQUEST'
p865
sg4
S'0x0C0C'
p866
sg6
S'PT_LONG'
p867
sa(dp868
g2
S'PR_PHYSICAL_FORWARDING_ADDRESS'
p869
sg4
S'0x0C0D'
p870
sg6
S'PT_BINARY'
p871
sa(dp872
g2
S'PR_PHYSICAL_FORWARDING_ADDRESS_REQUESTED'
p873
sg4
S'0x0C0E'
p874
sg6
S'PT_BOOLEAN'
p875
sa(dp876
g2
S'PR_PHYSICAL_FORWARDING_PROHIBITED'
p877
sg4
S'0x0C0F'
p878
sg6
S'PT_BOOLEAN'
p879
sa(dp880
g2
S'PR_PHYSICAL_RENDITION_ATTRIBUTES'
p881
sg4
S'0x0C10'
p882
sg6
S'PT_BINARY'
p883
sa(dp884
g2
S'PR_PROOF_OF_DELIVERY'
p885
sg4
S'0x0C11'
p886
sg6
S'PT_BINARY'
p887
sa(dp888
g2
S'PR_PROOF_OF_DELIVERY_REQUESTED'
p889
sg4
S'0x0C12'
p890
sg6
S'PT_BOOLEAN'
p891
sa(dp892
g2
S'PR_RECIPIENT_CERTIFICATE'
p893
sg4
S'0x0C13'
p894
sg6
S'PT_BINARY'
p895
sa(dp896
g2
S'PR_RECIPIENT_NUMBER_FOR_ADVICE'
p897
sg4
S'0x0C14'
p898
sg6
S'PT_TSTRING'
p899
sa(dp900
g2
S'PR_RECIPIENT_NUMBER_FOR_ADVICE_W'
p901
sg4
S'0x0C14'
p902
sg6
S'PT_UNICODE'
p903
sa(dp904
g2
S'PR_RECIPIENT_NUMBER_FOR_ADVICE_A'
p905
sg4
S'0x0C14'
p906
sg6
S'PT_STRING8'
p907
sa(dp908
g2
S'PR_RECIPIENT_TYPE'
p909
sg4
S'0x0C15'
p910
sg6
S'PT_LONG'
p911
sa(dp912
g2
S'PR_REGISTERED_MAIL_TYPE'
p913
sg4
S'0x0C16'
p914
sg6
S'PT_LONG'
p915
sa(dp916
g2
S'PR_REPLY_REQUESTED'
p917
sg4
S'0x0C17'
p918
sg6
S'PT_BOOLEAN'
p919
sa(dp920
g2
S'PR_REQUESTED_DELIVERY_METHOD'
p921
sg4
S'0x0C18'
p922
sg6
S'PT_LONG'
p923
sa(dp924
g2
S'PR_SENDER_ENTRYID'
p925
sg4
S'0x0C19'
p926
sg6
S'PT_BINARY'
p927
sa(dp928
g2
S'PR_SENDER_NAME'
p929
sg4
S'0x0C1A'
p930
sg6
S'PT_TSTRING'
p931
sa(dp932
g2
S'PR_SENDER_NAME_W'
p933
sg4
S'0x0C1A'
p934
sg6
S'PT_UNICODE'
p935
sa(dp936
g2
S'PR_SENDER_NAME_A'
p937
sg4
S'0x0C1A'
p938
sg6
S'PT_STRING8'
p939
sa(dp940
g2
S'PR_SUPPLEMENTARY_INFO'
p941
sg4
S'0x0C1B'
p942
sg6
S'PT_TSTRING'
p943
sa(dp944
g2
S'PR_SUPPLEMENTARY_INFO_W'
p945
sg4
S'0x0C1B'
p946
sg6
S'PT_UNICODE'
p947
sa(dp948
g2
S'PR_SUPPLEMENTARY_INFO_A'
p949
sg4
S'0x0C1B'
p950
sg6
S'PT_STRING8'
p951
sa(dp952
g2
S'PR_TYPE_OF_MTS_USER'
p953
sg4
S'0x0C1C'
p954
sg6
S'PT_LONG'
p955
sa(dp956
g2
S'PR_SENDER_SEARCH_KEY'
p957
sg4
S'0x0C1D'
p958
sg6
S'PT_BINARY'
p959
sa(dp960
g2
S'PR_SENDER_ADDRTYPE'
p961
sg4
S'0x0C1E'
p962
sg6
S'PT_TSTRING'
p963
sa(dp964
g2
S'PR_SENDER_ADDRTYPE_W'
p965
sg4
S'0x0C1E'
p966
sg6
S'PT_UNICODE'
p967
sa(dp968
g2
S'PR_SENDER_ADDRTYPE_A'
p969
sg4
S'0x0C1E'
p970
sg6
S'PT_STRING8'
p971
sa(dp972
g2
S'PR_SENDER_EMAIL_ADDRESS'
p973
sg4
S'0x0C1F'
p974
sg6
S'PT_TSTRING'
p975
sa(dp976
g2
S'PR_SENDER_EMAIL_ADDRESS_W'
p977
sg4
S'0x0C1F'
p978
sg6
S'PT_UNICODE'
p979
sa(dp980
g2
S'PR_SENDER_EMAIL_ADDRESS_A'
p981
sg4
S'0x0C1F'
p982
sg6
S'PT_STRING8'
p983
sa(dp984
g2
S'PR_CURRENT_VERSION'
p985
sg4
S'0x0E00'
p986
sg6
S'PT_I8'
p987
sa(dp988
g2
S'PR_DELETE_AFTER_SUBMIT'
p989
sg4
S'0x0E01'
p990
sg6
S'PT_BOOLEAN'
p991
sa(dp992
g2
S'PR_DISPLAY_BCC'
p993
sg4
S'0x0E02'
p994
sg6
S'PT_TSTRING'
p995
sa(dp996
g2
S'PR_DISPLAY_BCC_W'
p997
sg4
S'0x0E02'
p998
sg6
S'PT_UNICODE'
p999
sa(dp1000
g2
S'PR_DISPLAY_BCC_A'
p1001
sg4
S'0x0E02'
p1002
sg6
S'PT_STRING8'
p1003
sa(dp1004
g2
S'PR_DISPLAY_CC'
p1005
sg4
S'0x0E03'
p1006
sg6
S'PT_TSTRING'
p1007
sa(dp1008
g2
S'PR_DISPLAY_CC_W'
p1009
sg4
S'0x0E03'
p1010
sg6
S'PT_UNICODE'
p1011
sa(dp1012
g2
S'PR_DISPLAY_CC_A'
p1013
sg4
S'0x0E03'
p1014
sg6
S'PT_STRING8'
p1015
sa(dp1016
g2
S'PR_DISPLAY_TO'
p1017
sg4
S'0x0E04'
p1018
sg6
S'PT_TSTRING'
p1019
sa(dp1020
g2
S'PR_DISPLAY_TO_W'
p1021
sg4
S'0x0E04'
p1022
sg6
S'PT_UNICODE'
p1023
sa(dp1024
g2
S'PR_DISPLAY_TO_A'
p1025
sg4
S'0x0E04'
p1026
sg6
S'PT_STRING8'
p1027
sa(dp1028
g2
S'PR_PARENT_DISPLAY'
p1029
sg4
S'0x0E05'
p1030
sg6
S'PT_TSTRING'
p1031
sa(dp1032
g2
S'PR_PARENT_DISPLAY_W'
p1033
sg4
S'0x0E05'
p1034
sg6
S'PT_UNICODE'
p1035
sa(dp1036
g2
S'PR_PARENT_DISPLAY_A'
p1037
sg4
S'0x0E05'
p1038
sg6
S'PT_STRING8'
p1039
sa(dp1040
g2
S'PR_MESSAGE_DELIVERY_TIME'
p1041
sg4
S'0x0E06'
p1042
sg6
S'PT_SYSTIME'
p1043
sa(dp1044
g2
S'PR_MESSAGE_FLAGS'
p1045
sg4
S'0x0E07'
p1046
sg6
S'PT_LONG'
p1047
sa(dp1048
g2
S'PR_MESSAGE_SIZE'
p1049
sg4
S'0x0E08'
p1050
sg6
S'PT_LONG'
p1051
sa(dp1052
g2
S'PR_PARENT_ENTRYID'
p1053
sg4
S'0x0E09'
p1054
sg6
S'PT_BINARY'
p1055
sa(dp1056
g2
S'PR_SENTMAIL_ENTRYID'
p1057
sg4
S'0x0E0A'
p1058
sg6
S'PT_BINARY'
p1059
sa(dp1060
g2
S'PR_CORRELATE'
p1061
sg4
S'0x0E0C'
p1062
sg6
S'PT_BOOLEAN'
p1063
sa(dp1064
g2
S'PR_CORRELATE_MTSID'
p1065
sg4
S'0x0E0D'
p1066
sg6
S'PT_BINARY'
p1067
sa(dp1068
g2
S'PR_DISCRETE_VALUES'
p1069
sg4
S'0x0E0E'
p1070
sg6
S'PT_BOOLEAN'
p1071
sa(dp1072
g2
S'PR_RESPONSIBILITY'
p1073
sg4
S'0x0E0F'
p1074
sg6
S'PT_BOOLEAN'
p1075
sa(dp1076
g2
S'PR_SPOOLER_STATUS'
p1077
sg4
S'0x0E10'
p1078
sg6
S'PT_LONG'
p1079
sa(dp1080
g2
S'PR_TRANSPORT_STATUS'
p1081
sg4
S'0x0E11'
p1082
sg6
S'PT_LONG'
p1083
sa(dp1084
g2
S'PR_MESSAGE_RECIPIENTS'
p1085
sg4
S'0x0E12'
p1086
sg6
S'PT_OBJECT'
p1087
sa(dp1088
g2
S'PR_MESSAGE_ATTACHMENTS'
p1089
sg4
S'0x0E13'
p1090
sg6
S'PT_OBJECT'
p1091
sa(dp1092
g2
S'PR_SUBMIT_FLAGS'
p1093
sg4
S'0x0E14'
p1094
sg6
S'PT_LONG'
p1095
sa(dp1096
g2
S'PR_RECIPIENT_STATUS'
p1097
sg4
S'0x0E15'
p1098
sg6
S'PT_LONG'
p1099
sa(dp1100
g2
S'PR_TRANSPORT_KEY'
p1101
sg4
S'0x0E16'
p1102
sg6
S'PT_LONG'
p1103
sa(dp1104
g2
S'PR_MSG_STATUS'
p1105
sg4
S'0x0E17'
p1106
sg6
S'PT_LONG'
p1107
sa(dp1108
g2
S'PR_MESSAGE_DOWNLOAD_TIME'
p1109
sg4
S'0x0E18'
p1110
sg6
S'PT_LONG'
p1111
sa(dp1112
g2
S'PR_CREATION_VERSION'
p1113
sg4
S'0x0E19'
p1114
sg6
S'PT_I8'
p1115
sa(dp1116
g2
S'PR_MODIFY_VERSION'
p1117
sg4
S'0x0E1A'
p1118
sg6
S'PT_I8'
p1119
sa(dp1120
g2
S'PR_HASATTACH'
p1121
sg4
S'0x0E1B'
p1122
sg6
S'PT_BOOLEAN'
p1123
sa(dp1124
g2
S'PR_BODY_CRC'
p1125
sg4
S'0x0E1C'
p1126
sg6
S'PT_LONG'
p1127
sa(dp1128
g2
S'PR_NORMALIZED_SUBJECT'
p1129
sg4
S'0x0E1D'
p1130
sg6
S'PT_TSTRING'
p1131
sa(dp1132
g2
S'PR_NORMALIZED_SUBJECT_W'
p1133
sg4
S'0x0E1D'
p1134
sg6
S'PT_UNICODE'
p1135
sa(dp1136
g2
S'PR_NORMALIZED_SUBJECT_A'
p1137
sg4
S'0x0E1D'
p1138
sg6
S'PT_STRING8'
p1139
sa(dp1140
g2
S'PR_RTF_IN_SYNC'
p1141
sg4
S'0x0E1F'
p1142
sg6
S'PT_BOOLEAN'
p1143
sa(dp1144
g2
S'PR_ATTACH_SIZE'
p1145
sg4
S'0x0E20'
p1146
sg6
S'PT_LONG'
p1147
sa(dp1148
g2
S'PR_ATTACH_NUM'
p1149
sg4
S'0x0E21'
p1150
sg6
S'PT_LONG'
p1151
sa(dp1152
g2
S'PR_PREPROCESS'
p1153
sg4
S'0x0E22'
p1154
sg6
S'PT_BOOLEAN'
p1155
sa(dp1156
g2
S'PR_ORIGINATING_MTA_CERTIFICATE'
p1157
sg4
S'0x0E25'
p1158
sg6
S'PT_BINARY'
p1159
sa(dp1160
g2
S'PR_PROOF_OF_SUBMISSION'
p1161
sg4
S'0x0E26'
p1162
sg6
S'PT_BINARY'
p1163
sa(dp1164
g2
S'PR_ENTRYID'
p1165
sg4
S'0x0FFF'
p1166
sg6
S'PT_BINARY'
p1167
sa(dp1168
g2
S'PR_OBJECT_TYPE'
p1169
sg4
S'0x0FFE'
p1170
sg6
S'PT_LONG'
p1171
sa(dp1172
g2
S'PR_ICON'
p1173
sg4
S'0x0FFD'
p1174
sg6
S'PT_BINARY'
p1175
sa(dp1176
g2
S'PR_MINI_ICON'
p1177
sg4
S'0x0FFC'
p1178
sg6
S'PT_BINARY'
p1179
sa(dp1180
g2
S'PR_STORE_ENTRYID'
p1181
sg4
S'0x0FFB'
p1182
sg6
S'PT_BINARY'
p1183
sa(dp1184
g2
S'PR_STORE_RECORD_KEY'
p1185
sg4
S'0x0FFA'
p1186
sg6
S'PT_BINARY'
p1187
sa(dp1188
g2
S'PR_RECORD_KEY'
p1189
sg4
S'0x0FF9'
p1190
sg6
S'PT_BINARY'
p1191
sa(dp1192
g2
S'PR_MAPPING_SIGNATURE'
p1193
sg4
S'0x0FF8'
p1194
sg6
S'PT_BINARY'
p1195
sa(dp1196
g2
S'PR_ACCESS_LEVEL'
p1197
sg4
S'0x0FF7'
p1198
sg6
S'PT_LONG'
p1199
sa(dp1200
g2
S'PR_INSTANCE_KEY'
p1201
sg4
S'0x0FF6'
p1202
sg6
S'PT_BINARY'
p1203
sa(dp1204
g2
S'PR_ROW_TYPE'
p1205
sg4
S'0x0FF5'
p1206
sg6
S'PT_LONG'
p1207
sa(dp1208
g2
S'PR_ACCESS'
p1209
sg4
S'0x0FF4'
p1210
sg6
S'PT_LONG'
p1211
sa(dp1212
g2
S'PR_ROWID'
p1213
sg4
S'0x3000'
p1214
sg6
S'PT_LONG'
p1215
sa(dp1216
g2
S'PR_DISPLAY_NAME'
p1217
sg4
S'0x3001'
p1218
sg6
S'PT_TSTRING'
p1219
sa(dp1220
g2
S'PR_DISPLAY_NAME_W'
p1221
sg4
S'0x3001'
p1222
sg6
S'PT_UNICODE'
p1223
sa(dp1224
g2
S'PR_DISPLAY_NAME_A'
p1225
sg4
S'0x3001'
p1226
sg6
S'PT_STRING8'
p1227
sa(dp1228
g2
S'PR_ADDRTYPE'
p1229
sg4
S'0x3002'
p1230
sg6
S'PT_TSTRING'
p1231
sa(dp1232
g2
S'PR_ADDRTYPE_W'
p1233
sg4
S'0x3002'
p1234
sg6
S'PT_UNICODE'
p1235
sa(dp1236
g2
S'PR_ADDRTYPE_A'
p1237
sg4
S'0x3002'
p1238
sg6
S'PT_STRING8'
p1239
sa(dp1240
g2
S'PR_EMAIL_ADDRESS'
p1241
sg4
S'0x3003'
p1242
sg6
S'PT_TSTRING'
p1243
sa(dp1244
g2
S'PR_EMAIL_ADDRESS_W'
p1245
sg4
S'0x3003'
p1246
sg6
S'PT_UNICODE'
p1247
sa(dp1248
g2
S'PR_EMAIL_ADDRESS_A'
p1249
sg4
S'0x3003'
p1250
sg6
S'PT_STRING8'
p1251
sa(dp1252
g2
S'PR_COMMENT'
p1253
sg4
S'0x3004'
p1254
sg6
S'PT_TSTRING'
p1255
sa(dp1256
g2
S'PR_COMMENT_W'
p1257
sg4
S'0x3004'
p1258
sg6
S'PT_UNICODE'
p1259
sa(dp1260
g2
S'PR_COMMENT_A'
p1261
sg4
S'0x3004'
p1262
sg6
S'PT_STRING8'
p1263
sa(dp1264
g2
S'PR_DEPTH'
p1265
sg4
S'0x3005'
p1266
sg6
S'PT_LONG'
p1267
sa(dp1268
g2
S'PR_PROVIDER_DISPLAY'
p1269
sg4
S'0x3006'
p1270
sg6
S'PT_TSTRING'
p1271
sa(dp1272
g2
S'PR_PROVIDER_DISPLAY_W'
p1273
sg4
S'0x3006'
p1274
sg6
S'PT_UNICODE'
p1275
sa(dp1276
g2
S'PR_PROVIDER_DISPLAY_A'
p1277
sg4
S'0x3006'
p1278
sg6
S'PT_STRING8'
p1279
sa(dp1280
g2
S'PR_CREATION_TIME'
p1281
sg4
S'0x3007'
p1282
sg6
S'PT_SYSTIME'
p1283
sa(dp1284
g2
S'PR_LAST_MODIFICATION_TIME'
p1285
sg4
S'0x3008'
p1286
sg6
S'PT_SYSTIME'
p1287
sa(dp1288
g2
S'PR_RESOURCE_FLAGS'
p1289
sg4
S'0x3009'
p1290
sg6
S'PT_LONG'
p1291
sa(dp1292
g2
S'PR_PROVIDER_DLL_NAME'
p1293
sg4
S'0x300A'
p1294
sg6
S'PT_TSTRING'
p1295
sa(dp1296
g2
S'PR_PROVIDER_DLL_NAME_W'
p1297
sg4
S'0x300A'
p1298
sg6
S'PT_UNICODE'
p1299
sa(dp1300
g2
S'PR_PROVIDER_DLL_NAME_A'
p1301
sg4
S'0x300A'
p1302
sg6
S'PT_STRING8'
p1303
sa(dp1304
g2
S'PR_SEARCH_KEY'
p1305
sg4
S'0x300B'
p1306
sg6
S'PT_BINARY'
p1307
sa(dp1308
g2
S'PR_PROVIDER_UID'
p1309
sg4
S'0x300C'
p1310
sg6
S'PT_BINARY'
p1311
sa(dp1312
g2
S'PR_PROVIDER_ORDINAL'
p1313
sg4
S'0x300D'
p1314
sg6
S'PT_LONG'
p1315
sa(dp1316
g2
S'PR_DEFAULT_STORE'
p1317
sg4
S'0x3400'
p1318
sg6
S'PT_BOOLEAN'
p1319
sa(dp1320
g2
S'PR_STORE_SUPPORT_MASK'
p1321
sg4
S'0x340D'
p1322
sg6
S'PT_LONG'
p1323
sa(dp1324
g2
S'PR_STORE_STATE'
p1325
sg4
S'0x340E'
p1326
sg6
S'PT_LONG'
p1327
sa(dp1328
g2
S'PR_IPM_SUBTREE_SEARCH_KEY'
p1329
sg4
S'0x3410'
p1330
sg6
S'PT_BINARY'
p1331
sa(dp1332
g2
S'PR_IPM_OUTBOX_SEARCH_KEY'
p1333
sg4
S'0x3411'
p1334
sg6
S'PT_BINARY'
p1335
sa(dp1336
g2
S'PR_IPM_WASTEBASKET_SEARCH_KEY'
p1337
sg4
S'0x3412'
p1338
sg6
S'PT_BINARY'
p1339
sa(dp1340
g2
S'PR_IPM_SENTMAIL_SEARCH_KEY'
p1341
sg4
S'0x3413'
p1342
sg6
S'PT_BINARY'
p1343
sa(dp1344
g2
S'PR_MDB_PROVIDER'
p1345
sg4
S'0x3414'
p1346
sg6
S'PT_BINARY'
p1347
sa(dp1348
g2
S'PR_RECEIVE_FOLDER_SETTINGS'
p1349
sg4
S'0x3415'
p1350
sg6
S'PT_OBJECT'
p1351
sa(dp1352
g2
S'PR_VALID_FOLDER_MASK'
p1353
sg4
S'0x35DF'
p1354
sg6
S'PT_LONG'
p1355
sa(dp1356
g2
S'PR_IPM_SUBTREE_ENTRYID'
p1357
sg4
S'0x35E0'
p1358
sg6
S'PT_BINARY'
p1359
sa(dp1360
g2
S'PR_IPM_OUTBOX_ENTRYID'
p1361
sg4
S'0x35E2'
p1362
sg6
S'PT_BINARY'
p1363
sa(dp1364
g2
S'PR_IPM_WASTEBASKET_ENTRYID'
p1365
sg4
S'0x35E3'
p1366
sg6
S'PT_BINARY'
p1367
sa(dp1368
g2
S'PR_IPM_SENTMAIL_ENTRYID'
p1369
sg4
S'0x35E4'
p1370
sg6
S'PT_BINARY'
p1371
sa(dp1372
g2
S'PR_VIEWS_ENTRYID'
p1373
sg4
S'0x35E5'
p1374
sg6
S'PT_BINARY'
p1375
sa(dp1376
g2
S'PR_COMMON_VIEWS_ENTRYID'
p1377
sg4
S'0x35E6'
p1378
sg6
S'PT_BINARY'
p1379
sa(dp1380
g2
S'PR_FINDER_ENTRYID'
p1381
sg4
S'0x35E7'
p1382
sg6
S'PT_BINARY'
p1383
sa(dp1384
g2
S'PR_CONTAINER_FLAGS'
p1385
sg4
S'0x3600'
p1386
sg6
S'PT_LONG'
p1387
sa(dp1388
g2
S'PR_FOLDER_TYPE'
p1389
sg4
S'0x3601'
p1390
sg6
S'PT_LONG'
p1391
sa(dp1392
g2
S'PR_CONTENT_COUNT'
p1393
sg4
S'0x3602'
p1394
sg6
S'PT_LONG'
p1395
sa(dp1396
g2
S'PR_CONTENT_UNREAD'
p1397
sg4
S'0x3603'
p1398
sg6
S'PT_LONG'
p1399
sa(dp1400
g2
S'PR_CREATE_TEMPLATES'
p1401
sg4
S'0x3604'
p1402
sg6
S'PT_OBJECT'
p1403
sa(dp1404
g2
S'PR_DETAILS_TABLE'
p1405
sg4
S'0x3605'
p1406
sg6
S'PT_OBJECT'
p1407
sa(dp1408
g2
S'PR_SEARCH'
p1409
sg4
S'0x3607'
p1410
sg6
S'PT_OBJECT'
p1411
sa(dp1412
g2
S'PR_SELECTABLE'
p1413
sg4
S'0x3609'
p1414
sg6
S'PT_BOOLEAN'
p1415
sa(dp1416
g2
S'PR_SUBFOLDERS'
p1417
sg4
S'0x360A'
p1418
sg6
S'PT_BOOLEAN'
p1419
sa(dp1420
g2
S'PR_STATUS'
p1421
sg4
S'0x360B'
p1422
sg6
S'PT_LONG'
p1423
sa(dp1424
g2
S'PR_ANR'
p1425
sg4
S'0x360C'
p1426
sg6
S'PT_TSTRING'
p1427
sa(dp1428
g2
S'PR_ANR_W'
p1429
sg4
S'0x360C'
p1430
sg6
S'PT_UNICODE'
p1431
sa(dp1432
g2
S'PR_ANR_A'
p1433
sg4
S'0x360C'
p1434
sg6
S'PT_STRING8'
p1435
sa(dp1436
g2
S'PR_CONTENTS_SORT_ORDER'
p1437
sg4
S'0x360D'
p1438
sg6
S'PT_MV_LONG'
p1439
sa(dp1440
g2
S'PR_CONTAINER_HIERARCHY'
p1441
sg4
S'0x360E'
p1442
sg6
S'PT_OBJECT'
p1443
sa(dp1444
g2
S'PR_CONTAINER_CONTENTS'
p1445
sg4
S'0x360F'
p1446
sg6
S'PT_OBJECT'
p1447
sa(dp1448
g2
S'PR_FOLDER_ASSOCIATED_CONTENTS'
p1449
sg4
S'0x3610'
p1450
sg6
S'PT_OBJECT'
p1451
sa(dp1452
g2
S'PR_DEF_CREATE_DL'
p1453
sg4
S'0x3611'
p1454
sg6
S'PT_BINARY'
p1455
sa(dp1456
g2
S'PR_DEF_CREATE_MAILUSER'
p1457
sg4
S'0x3612'
p1458
sg6
S'PT_BINARY'
p1459
sa(dp1460
g2
S'PR_CONTAINER_CLASS'
p1461
sg4
S'0x3613'
p1462
sg6
S'PT_TSTRING'
p1463
sa(dp1464
g2
S'PR_CONTAINER_CLASS_W'
p1465
sg4
S'0x3613'
p1466
sg6
S'PT_UNICODE'
p1467
sa(dp1468
g2
S'PR_CONTAINER_CLASS_A'
p1469
sg4
S'0x3613'
p1470
sg6
S'PT_STRING8'
p1471
sa(dp1472
g2
S'PR_CONTAINER_MODIFY_VERSION'
p1473
sg4
S'0x3614'
p1474
sg6
S'PT_I8'
p1475
sa(dp1476
g2
S'PR_AB_PROVIDER_ID'
p1477
sg4
S'0x3615'
p1478
sg6
S'PT_BINARY'
p1479
sa(dp1480
g2
S'PR_DEFAULT_VIEW_ENTRYID'
p1481
sg4
S'0x3616'
p1482
sg6
S'PT_BINARY'
p1483
sa(dp1484
g2
S'PR_ASSOC_CONTENT_COUNT'
p1485
sg4
S'0x3617'
p1486
sg6
S'PT_LONG'
p1487
sa(dp1488
g2
S'PR_ATTACHMENT_X400_PARAMETERS'
p1489
sg4
S'0x3700'
p1490
sg6
S'PT_BINARY'
p1491
sa(dp1492
g2
S'PR_ATTACH_DATA_OBJ'
p1493
sg4
S'0x3701'
p1494
sg6
S'PT_OBJECT'
p1495
sa(dp1496
g2
S'PR_ATTACH_DATA_BIN'
p1497
sg4
S'0x3701'
p1498
sg6
S'PT_BINARY'
p1499
sa(dp1500
g2
S'PR_ATTACH_ENCODING'
p1501
sg4
S'0x3702'
p1502
sg6
S'PT_BINARY'
p1503
sa(dp1504
g2
S'PR_ATTACH_EXTENSION'
p1505
sg4
S'0x3703'
p1506
sg6
S'PT_TSTRING'
p1507
sa(dp1508
g2
S'PR_ATTACH_EXTENSION_W'
p1509
sg4
S'0x3703'
p1510
sg6
S'PT_UNICODE'
p1511
sa(dp1512
g2
S'PR_ATTACH_EXTENSION_A'
p1513
sg4
S'0x3703'
p1514
sg6
S'PT_STRING8'
p1515
sa(dp1516
g2
S'PR_ATTACH_FILENAME'
p1517
sg4
S'0x3704'
p1518
sg6
S'PT_TSTRING'
p1519
sa(dp1520
g2
S'PR_ATTACH_FILENAME_W'
p1521
sg4
S'0x3704'
p1522
sg6
S'PT_UNICODE'
p1523
sa(dp1524
g2
S'PR_ATTACH_FILENAME_A'
p1525
sg4
S'0x3704'
p1526
sg6
S'PT_STRING8'
p1527
sa(dp1528
g2
S'PR_ATTACH_METHOD'
p1529
sg4
S'0x3705'
p1530
sg6
S'PT_LONG'
p1531
sa(dp1532
g2
S'PR_ATTACH_LONG_FILENAME'
p1533
sg4
S'0x3707'
p1534
sg6
S'PT_TSTRING'
p1535
sa(dp1536
g2
S'PR_ATTACH_LONG_FILENAME_W'
p1537
sg4
S'0x3707'
p1538
sg6
S'PT_UNICODE'
p1539
sa(dp1540
g2
S'PR_ATTACH_LONG_FILENAME_A'
p1541
sg4
S'0x3707'
p1542
sg6
S'PT_STRING8'
p1543
sa(dp1544
g2
S'PR_ATTACH_PATHNAME'
p1545
sg4
S'0x3708'
p1546
sg6
S'PT_TSTRING'
p1547
sa(dp1548
g2
S'PR_ATTACH_PATHNAME_W'
p1549
sg4
S'0x3708'
p1550
sg6
S'PT_UNICODE'
p1551
sa(dp1552
g2
S'PR_ATTACH_PATHNAME_A'
p1553
sg4
S'0x3708'
p1554
sg6
S'PT_STRING8'
p1555
sa(dp1556
g2
S'PR_ATTACH_RENDERING'
p1557
sg4
S'0x3709'
p1558
sg6
S'PT_BINARY'
p1559
sa(dp1560
g2
S'PR_ATTACH_TAG'
p1561
sg4
S'0x370A'
p1562
sg6
S'PT_BINARY'
p1563
sa(dp1564
g2
S'PR_RENDERING_POSITION'
p1565
sg4
S'0x370B'
p1566
sg6
S'PT_LONG'
p1567
sa(dp1568
g2
S'PR_ATTACH_TRANSPORT_NAME'
p1569
sg4
S'0x370C'
p1570
sg6
S'PT_TSTRING'
p1571
sa(dp1572
g2
S'PR_ATTACH_TRANSPORT_NAME_W'
p1573
sg4
S'0x370C'
p1574
sg6
S'PT_UNICODE'
p1575
sa(dp1576
g2
S'PR_ATTACH_TRANSPORT_NAME_A'
p1577
sg4
S'0x370C'
p1578
sg6
S'PT_STRING8'
p1579
sa(dp1580
g2
S'PR_ATTACH_LONG_PATHNAME'
p1581
sg4
S'0x370D'
p1582
sg6
S'PT_TSTRING'
p1583
sa(dp1584
g2
S'PR_ATTACH_LONG_PATHNAME_W'
p1585
sg4
S'0x370D'
p1586
sg6
S'PT_UNICODE'
p1587
sa(dp1588
g2
S'PR_ATTACH_LONG_PATHNAME_A'
p1589
sg4
S'0x370D'
p1590
sg6
S'PT_STRING8'
p1591
sa(dp1592
g2
S'PR_ATTACH_MIME_TAG'
p1593
sg4
S'0x370E'
p1594
sg6
S'PT_TSTRING'
p1595
sa(dp1596
g2
S'PR_ATTACH_MIME_TAG_W'
p1597
sg4
S'0x370E'
p1598
sg6
S'PT_UNICODE'
p1599
sa(dp1600
g2
S'PR_ATTACH_MIME_TAG_A'
p1601
sg4
S'0x370E'
p1602
sg6
S'PT_STRING8'
p1603
sa(dp1604
g2
S'PR_ATTACH_ADDITIONAL_INFO'
p1605
sg4
S'0x370F'
p1606
sg6
S'PT_BINARY'
p1607
sa(dp1608
g2
S'PR_DISPLAY_TYPE'
p1609
sg4
S'0x3900'
p1610
sg6
S'PT_LONG'
p1611
sa(dp1612
g2
S'PR_TEMPLATEID'
p1613
sg4
S'0x3902'
p1614
sg6
S'PT_BINARY'
p1615
sa(dp1616
g2
S'PR_PRIMARY_CAPABILITY'
p1617
sg4
S'0x3904'
p1618
sg6
S'PT_BINARY'
p1619
sa(dp1620
g2
S'PR_7BIT_DISPLAY_NAME'
p1621
sg4
S'0x39FF'
p1622
sg6
S'PT_STRING8'
p1623
sa(dp1624
g2
S'PR_ACCOUNT'
p1625
sg4
S'0x3A00'
p1626
sg6
S'PT_TSTRING'
p1627
sa(dp1628
g2
S'PR_ACCOUNT_W'
p1629
sg4
S'0x3A00'
p1630
sg6
S'PT_UNICODE'
p1631
sa(dp1632
g2
S'PR_ACCOUNT_A'
p1633
sg4
S'0x3A00'
p1634
sg6
S'PT_STRING8'
p1635
sa(dp1636
g2
S'PR_ALTERNATE_RECIPIENT'
p1637
sg4
S'0x3A01'
p1638
sg6
S'PT_BINARY'
p1639
sa(dp1640
g2
S'PR_CALLBACK_TELEPHONE_NUMBER'
p1641
sg4
S'0x3A02'
p1642
sg6
S'PT_TSTRING'
p1643
sa(dp1644
g2
S'PR_CALLBACK_TELEPHONE_NUMBER_W'
p1645
sg4
S'0x3A02'
p1646
sg6
S'PT_UNICODE'
p1647
sa(dp1648
g2
S'PR_CALLBACK_TELEPHONE_NUMBER_A'
p1649
sg4
S'0x3A02'
p1650
sg6
S'PT_STRING8'
p1651
sa(dp1652
g2
S'PR_CONVERSION_PROHIBITED'
p1653
sg4
S'0x3A03'
p1654
sg6
S'PT_BOOLEAN'
p1655
sa(dp1656
g2
S'PR_DISCLOSE_RECIPIENTS'
p1657
sg4
S'0x3A04'
p1658
sg6
S'PT_BOOLEAN'
p1659
sa(dp1660
g2
S'PR_GENERATION'
p1661
sg4
S'0x3A05'
p1662
sg6
S'PT_TSTRING'
p1663
sa(dp1664
g2
S'PR_GENERATION_W'
p1665
sg4
S'0x3A05'
p1666
sg6
S'PT_UNICODE'
p1667
sa(dp1668
g2
S'PR_GENERATION_A'
p1669
sg4
S'0x3A05'
p1670
sg6
S'PT_STRING8'
p1671
sa(dp1672
g2
S'PR_GIVEN_NAME'
p1673
sg4
S'0x3A06'
p1674
sg6
S'PT_TSTRING'
p1675
sa(dp1676
g2
S'PR_GIVEN_NAME_W'
p1677
sg4
S'0x3A06'
p1678
sg6
S'PT_UNICODE'
p1679
sa(dp1680
g2
S'PR_GIVEN_NAME_A'
p1681
sg4
S'0x3A06'
p1682
sg6
S'PT_STRING8'
p1683
sa(dp1684
g2
S'PR_GOVERNMENT_ID_NUMBER'
p1685
sg4
S'0x3A07'
p1686
sg6
S'PT_TSTRING'
p1687
sa(dp1688
g2
S'PR_GOVERNMENT_ID_NUMBER_W'
p1689
sg4
S'0x3A07'
p1690
sg6
S'PT_UNICODE'
p1691
sa(dp1692
g2
S'PR_GOVERNMENT_ID_NUMBER_A'
p1693
sg4
S'0x3A07'
p1694
sg6
S'PT_STRING8'
p1695
sa(dp1696
g2
S'PR_BUSINESS_TELEPHONE_NUMBER'
p1697
sg4
S'0x3A08'
p1698
sg6
S'PT_TSTRING'
p1699
sa(dp1700
g2
S'PR_BUSINESS_TELEPHONE_NUMBER_W'
p1701
sg4
S'0x3A08'
p1702
sg6
S'PT_UNICODE'
p1703
sa(dp1704
g2
S'PR_BUSINESS_TELEPHONE_NUMBER_A'
p1705
sg4
S'0x3A08'
p1706
sg6
S'PT_STRING8'
p1707
sa(dp1708
g2
S'PR_HOME_TELEPHONE_NUMBER'
p1709
sg4
S'0x3A09'
p1710
sg6
S'PT_TSTRING'
p1711
sa(dp1712
g2
S'PR_HOME_TELEPHONE_NUMBER_W'
p1713
sg4
S'0x3A09'
p1714
sg6
S'PT_UNICODE'
p1715
sa(dp1716
g2
S'PR_HOME_TELEPHONE_NUMBER_A'
p1717
sg4
S'0x3A09'
p1718
sg6
S'PT_STRING8'
p1719
sa(dp1720
g2
S'PR_INITIALS'
p1721
sg4
S'0x3A0A'
p1722
sg6
S'PT_TSTRING'
p1723
sa(dp1724
g2
S'PR_INITIALS_W'
p1725
sg4
S'0x3A0A'
p1726
sg6
S'PT_UNICODE'
p1727
sa(dp1728
g2
S'PR_INITIALS_A'
p1729
sg4
S'0x3A0A'
p1730
sg6
S'PT_STRING8'
p1731
sa(dp1732
g2
S'PR_KEYWORD'
p1733
sg4
S'0x3A0B'
p1734
sg6
S'PT_TSTRING'
p1735
sa(dp1736
g2
S'PR_KEYWORD_W'
p1737
sg4
S'0x3A0B'
p1738
sg6
S'PT_UNICODE'
p1739
sa(dp1740
g2
S'PR_KEYWORD_A'
p1741
sg4
S'0x3A0B'
p1742
sg6
S'PT_STRING8'
p1743
sa(dp1744
g2
S'PR_LANGUAGE'
p1745
sg4
S'0x3A0C'
p1746
sg6
S'PT_TSTRING'
p1747
sa(dp1748
g2
S'PR_LANGUAGE_W'
p1749
sg4
S'0x3A0C'
p1750
sg6
S'PT_UNICODE'
p1751
sa(dp1752
g2
S'PR_LANGUAGE_A'
p1753
sg4
S'0x3A0C'
p1754
sg6
S'PT_STRING8'
p1755
sa(dp1756
g2
S'PR_LOCATION'
p1757
sg4
S'0x3A0D'
p1758
sg6
S'PT_TSTRING'
p1759
sa(dp1760
g2
S'PR_LOCATION_W'
p1761
sg4
S'0x3A0D'
p1762
sg6
S'PT_UNICODE'
p1763
sa(dp1764
g2
S'PR_LOCATION_A'
p1765
sg4
S'0x3A0D'
p1766
sg6
S'PT_STRING8'
p1767
sa(dp1768
g2
S'PR_MAIL_PERMISSION'
p1769
sg4
S'0x3A0E'
p1770
sg6
S'PT_BOOLEAN'
p1771
sa(dp1772
g2
S'PR_MHS_COMMON_NAME'
p1773
sg4
S'0x3A0F'
p1774
sg6
S'PT_TSTRING'
p1775
sa(dp1776
g2
S'PR_MHS_COMMON_NAME_W'
p1777
sg4
S'0x3A0F'
p1778
sg6
S'PT_UNICODE'
p1779
sa(dp1780
g2
S'PR_MHS_COMMON_NAME_A'
p1781
sg4
S'0x3A0F'
p1782
sg6
S'PT_STRING8'
p1783
sa(dp1784
g2
S'PR_ORGANIZATIONAL_ID_NUMBER'
p1785
sg4
S'0x3A10'
p1786
sg6
S'PT_TSTRING'
p1787
sa(dp1788
g2
S'PR_ORGANIZATIONAL_ID_NUMBER_W'
p1789
sg4
S'0x3A10'
p1790
sg6
S'PT_UNICODE'
p1791
sa(dp1792
g2
S'PR_ORGANIZATIONAL_ID_NUMBER_A'
p1793
sg4
S'0x3A10'
p1794
sg6
S'PT_STRING8'
p1795
sa(dp1796
g2
S'PR_SURNAME'
p1797
sg4
S'0x3A11'
p1798
sg6
S'PT_TSTRING'
p1799
sa(dp1800
g2
S'PR_SURNAME_W'
p1801
sg4
S'0x3A11'
p1802
sg6
S'PT_UNICODE'
p1803
sa(dp1804
g2
S'PR_SURNAME_A'
p1805
sg4
S'0x3A11'
p1806
sg6
S'PT_STRING8'
p1807
sa(dp1808
g2
S'PR_ORIGINAL_ENTRYID'
p1809
sg4
S'0x3A12'
p1810
sg6
S'PT_BINARY'
p1811
sa(dp1812
g2
S'PR_ORIGINAL_DISPLAY_NAME'
p1813
sg4
S'0x3A13'
p1814
sg6
S'PT_TSTRING'
p1815
sa(dp1816
g2
S'PR_ORIGINAL_DISPLAY_NAME_W'
p1817
sg4
S'0x3A13'
p1818
sg6
S'PT_UNICODE'
p1819
sa(dp1820
g2
S'PR_ORIGINAL_DISPLAY_NAME_A'
p1821
sg4
S'0x3A13'
p1822
sg6
S'PT_STRING8'
p1823
sa(dp1824
g2
S'PR_ORIGINAL_SEARCH_KEY'
p1825
sg4
S'0x3A14'
p1826
sg6
S'PT_BINARY'
p1827
sa(dp1828
g2
S'PR_POSTAL_ADDRESS'
p1829
sg4
S'0x3A15'
p1830
sg6
S'PT_TSTRING'
p1831
sa(dp1832
g2
S'PR_POSTAL_ADDRESS_W'
p1833
sg4
S'0x3A15'
p1834
sg6
S'PT_UNICODE'
p1835
sa(dp1836
g2
S'PR_POSTAL_ADDRESS_A'
p1837
sg4
S'0x3A15'
p1838
sg6
S'PT_STRING8'
p1839
sa(dp1840
g2
S'PR_COMPANY_NAME'
p1841
sg4
S'0x3A16'
p1842
sg6
S'PT_TSTRING'
p1843
sa(dp1844
g2
S'PR_COMPANY_NAME_W'
p1845
sg4
S'0x3A16'
p1846
sg6
S'PT_UNICODE'
p1847
sa(dp1848
g2
S'PR_COMPANY_NAME_A'
p1849
sg4
S'0x3A16'
p1850
sg6
S'PT_STRING8'
p1851
sa(dp1852
g2
S'PR_TITLE'
p1853
sg4
S'0x3A17'
p1854
sg6
S'PT_TSTRING'
p1855
sa(dp1856
g2
S'PR_TITLE_W'
p1857
sg4
S'0x3A17'
p1858
sg6
S'PT_UNICODE'
p1859
sa(dp1860
g2
S'PR_TITLE_A'
p1861
sg4
S'0x3A17'
p1862
sg6
S'PT_STRING8'
p1863
sa(dp1864
g2
S'PR_DEPARTMENT_NAME'
p1865
sg4
S'0x3A18'
p1866
sg6
S'PT_TSTRING'
p1867
sa(dp1868
g2
S'PR_DEPARTMENT_NAME_W'
p1869
sg4
S'0x3A18'
p1870
sg6
S'PT_UNICODE'
p1871
sa(dp1872
g2
S'PR_DEPARTMENT_NAME_A'
p1873
sg4
S'0x3A18'
p1874
sg6
S'PT_STRING8'
p1875
sa(dp1876
g2
S'PR_OFFICE_LOCATION'
p1877
sg4
S'0x3A19'
p1878
sg6
S'PT_TSTRING'
p1879
sa(dp1880
g2
S'PR_OFFICE_LOCATION_W'
p1881
sg4
S'0x3A19'
p1882
sg6
S'PT_UNICODE'
p1883
sa(dp1884
g2
S'PR_OFFICE_LOCATION_A'
p1885
sg4
S'0x3A19'
p1886
sg6
S'PT_STRING8'
p1887
sa(dp1888
g2
S'PR_PRIMARY_TELEPHONE_NUMBER'
p1889
sg4
S'0x3A1A'
p1890
sg6
S'PT_TSTRING'
p1891
sa(dp1892
g2
S'PR_PRIMARY_TELEPHONE_NUMBER_W'
p1893
sg4
S'0x3A1A'
p1894
sg6
S'PT_UNICODE'
p1895
sa(dp1896
g2
S'PR_PRIMARY_TELEPHONE_NUMBER_A'
p1897
sg4
S'0x3A1A'
p1898
sg6
S'PT_STRING8'
p1899
sa(dp1900
g2
S'PR_BUSINESS2_TELEPHONE_NUMBER'
p1901
sg4
S'0x3A1B'
p1902
sg6
S'PT_TSTRING'
p1903
sa(dp1904
g2
S'PR_BUSINESS2_TELEPHONE_NUMBER_W'
p1905
sg4
S'0x3A1B'
p1906
sg6
S'PT_UNICODE'
p1907
sa(dp1908
g2
S'PR_BUSINESS2_TELEPHONE_NUMBER_A'
p1909
sg4
S'0x3A1B'
p1910
sg6
S'PT_STRING8'
p1911
sa(dp1912
g2
S'PR_MOBILE_TELEPHONE_NUMBER'
p1913
sg4
S'0x3A1C'
p1914
sg6
S'PT_TSTRING'
p1915
sa(dp1916
g2
S'PR_MOBILE_TELEPHONE_NUMBER_W'
p1917
sg4
S'0x3A1C'
p1918
sg6
S'PT_UNICODE'
p1919
sa(dp1920
g2
S'PR_MOBILE_TELEPHONE_NUMBER_A'
p1921
sg4
S'0x3A1C'
p1922
sg6
S'PT_STRING8'
p1923
sa(dp1924
g2
S'PR_RADIO_TELEPHONE_NUMBER'
p1925
sg4
S'0x3A1D'
p1926
sg6
S'PT_TSTRING'
p1927
sa(dp1928
g2
S'PR_RADIO_TELEPHONE_NUMBER_W'
p1929
sg4
S'0x3A1D'
p1930
sg6
S'PT_UNICODE'
p1931
sa(dp1932
g2
S'PR_RADIO_TELEPHONE_NUMBER_A'
p1933
sg4
S'0x3A1D'
p1934
sg6
S'PT_STRING8'
p1935
sa(dp1936
g2
S'PR_CAR_TELEPHONE_NUMBER'
p1937
sg4
S'0x3A1E'
p1938
sg6
S'PT_TSTRING'
p1939
sa(dp1940
g2
S'PR_CAR_TELEPHONE_NUMBER_W'
p1941
sg4
S'0x3A1E'
p1942
sg6
S'PT_UNICODE'
p1943
sa(dp1944
g2
S'PR_CAR_TELEPHONE_NUMBER_A'
p1945
sg4
S'0x3A1E'
p1946
sg6
S'PT_STRING8'
p1947
sa(dp1948
g2
S'PR_OTHER_TELEPHONE_NUMBER'
p1949
sg4
S'0x3A1F'
p1950
sg6
S'PT_TSTRING'
p1951
sa(dp1952
g2
S'PR_OTHER_TELEPHONE_NUMBER_W'
p1953
sg4
S'0x3A1F'
p1954
sg6
S'PT_UNICODE'
p1955
sa(dp1956
g2
S'PR_OTHER_TELEPHONE_NUMBER_A'
p1957
sg4
S'0x3A1F'
p1958
sg6
S'PT_STRING8'
p1959
sa(dp1960
g2
S'PR_TRANSMITABLE_DISPLAY_NAME'
p1961
sg4
S'0x3A20'
p1962
sg6
S'PT_TSTRING'
p1963
sa(dp1964
g2
S'PR_TRANSMITABLE_DISPLAY_NAME_W'
p1965
sg4
S'0x3A20'
p1966
sg6
S'PT_UNICODE'
p1967
sa(dp1968
g2
S'PR_TRANSMITABLE_DISPLAY_NAME_A'
p1969
sg4
S'0x3A20'
p1970
sg6
S'PT_STRING8'
p1971
sa(dp1972
g2
S'PR_PAGER_TELEPHONE_NUMBER'
p1973
sg4
S'0x3A21'
p1974
sg6
S'PT_TSTRING'
p1975
sa(dp1976
g2
S'PR_PAGER_TELEPHONE_NUMBER_W'
p1977
sg4
S'0x3A21'
p1978
sg6
S'PT_UNICODE'
p1979
sa(dp1980
g2
S'PR_PAGER_TELEPHONE_NUMBER_A'
p1981
sg4
S'0x3A21'
p1982
sg6
S'PT_STRING8'
p1983
sa(dp1984
g2
S'PR_USER_CERTIFICATE'
p1985
sg4
S'0x3A22'
p1986
sg6
S'PT_BINARY'
p1987
sa(dp1988
g2
S'PR_PRIMARY_FAX_NUMBER'
p1989
sg4
S'0x3A23'
p1990
sg6
S'PT_TSTRING'
p1991
sa(dp1992
g2
S'PR_PRIMARY_FAX_NUMBER_W'
p1993
sg4
S'0x3A23'
p1994
sg6
S'PT_UNICODE'
p1995
sa(dp1996
g2
S'PR_PRIMARY_FAX_NUMBER_A'
p1997
sg4
S'0x3A23'
p1998
sg6
S'PT_STRING8'
p1999
sa(dp2000
g2
S'PR_BUSINESS_FAX_NUMBER'
p2001
sg4
S'0x3A24'
p2002
sg6
S'PT_TSTRING'
p2003
sa(dp2004
g2
S'PR_BUSINESS_FAX_NUMBER_W'
p2005
sg4
S'0x3A24'
p2006
sg6
S'PT_UNICODE'
p2007
sa(dp2008
g2
S'PR_BUSINESS_FAX_NUMBER_A'
p2009
sg4
S'0x3A24'
p2010
sg6
S'PT_STRING8'
p2011
sa(dp2012
g2
S'PR_HOME_FAX_NUMBER'
p2013
sg4
S'0x3A25'
p2014
sg6
S'PT_TSTRING'
p2015
sa(dp2016
g2
S'PR_HOME_FAX_NUMBER_W'
p2017
sg4
S'0x3A25'
p2018
sg6
S'PT_UNICODE'
p2019
sa(dp2020
g2
S'PR_HOME_FAX_NUMBER_A'
p2021
sg4
S'0x3A25'
p2022
sg6
S'PT_STRING8'
p2023
sa(dp2024
g2
S'PR_COUNTRY'
p2025
sg4
S'0x3A26'
p2026
sg6
S'PT_TSTRING'
p2027
sa(dp2028
g2
S'PR_COUNTRY_W'
p2029
sg4
S'0x3A26'
p2030
sg6
S'PT_UNICODE'
p2031
sa(dp2032
g2
S'PR_COUNTRY_A'
p2033
sg4
S'0x3A26'
p2034
sg6
S'PT_STRING8'
p2035
sa(dp2036
g2
S'PR_LOCALITY'
p2037
sg4
S'0x3A27'
p2038
sg6
S'PT_TSTRING'
p2039
sa(dp2040
g2
S'PR_LOCALITY_W'
p2041
sg4
S'0x3A27'
p2042
sg6
S'PT_UNICODE'
p2043
sa(dp2044
g2
S'PR_LOCALITY_A'
p2045
sg4
S'0x3A27'
p2046
sg6
S'PT_STRING8'
p2047
sa(dp2048
g2
S'PR_STATE_OR_PROVINCE'
p2049
sg4
S'0x3A28'
p2050
sg6
S'PT_TSTRING'
p2051
sa(dp2052
g2
S'PR_STATE_OR_PROVINCE_W'
p2053
sg4
S'0x3A28'
p2054
sg6
S'PT_UNICODE'
p2055
sa(dp2056
g2
S'PR_STATE_OR_PROVINCE_A'
p2057
sg4
S'0x3A28'
p2058
sg6
S'PT_STRING8'
p2059
sa(dp2060
g2
S'PR_STREET_ADDRESS'
p2061
sg4
S'0x3A29'
p2062
sg6
S'PT_TSTRING'
p2063
sa(dp2064
g2
S'PR_STREET_ADDRESS_W'
p2065
sg4
S'0x3A29'
p2066
sg6
S'PT_UNICODE'
p2067
sa(dp2068
g2
S'PR_STREET_ADDRESS_A'
p2069
sg4
S'0x3A29'
p2070
sg6
S'PT_STRING8'
p2071
sa(dp2072
g2
S'PR_POSTAL_CODE'
p2073
sg4
S'0x3A2A'
p2074
sg6
S'PT_TSTRING'
p2075
sa(dp2076
g2
S'PR_POSTAL_CODE_W'
p2077
sg4
S'0x3A2A'
p2078
sg6
S'PT_UNICODE'
p2079
sa(dp2080
g2
S'PR_POSTAL_CODE_A'
p2081
sg4
S'0x3A2A'
p2082
sg6
S'PT_STRING8'
p2083
sa(dp2084
g2
S'PR_POST_OFFICE_BOX'
p2085
sg4
S'0x3A2B'
p2086
sg6
S'PT_TSTRING'
p2087
sa(dp2088
g2
S'PR_POST_OFFICE_BOX_W'
p2089
sg4
S'0x3A2B'
p2090
sg6
S'PT_UNICODE'
p2091
sa(dp2092
g2
S'PR_POST_OFFICE_BOX_A'
p2093
sg4
S'0x3A2B'
p2094
sg6
S'PT_STRING8'
p2095
sa(dp2096
g2
S'PR_TELEX_NUMBER'
p2097
sg4
S'0x3A2C'
p2098
sg6
S'PT_TSTRING'
p2099
sa(dp2100
g2
S'PR_TELEX_NUMBER_W'
p2101
sg4
S'0x3A2C'
p2102
sg6
S'PT_UNICODE'
p2103
sa(dp2104
g2
S'PR_TELEX_NUMBER_A'
p2105
sg4
S'0x3A2C'
p2106
sg6
S'PT_STRING8'
p2107
sa(dp2108
g2
S'PR_ISDN_NUMBER'
p2109
sg4
S'0x3A2D'
p2110
sg6
S'PT_TSTRING'
p2111
sa(dp2112
g2
S'PR_ISDN_NUMBER_W'
p2113
sg4
S'0x3A2D'
p2114
sg6
S'PT_UNICODE'
p2115
sa(dp2116
g2
S'PR_ISDN_NUMBER_A'
p2117
sg4
S'0x3A2D'
p2118
sg6
S'PT_STRING8'
p2119
sa(dp2120
g2
S'PR_ASSISTANT_TELEPHONE_NUMBER'
p2121
sg4
S'0x3A2E'
p2122
sg6
S'PT_TSTRING'
p2123
sa(dp2124
g2
S'PR_ASSISTANT_TELEPHONE_NUMBER_W'
p2125
sg4
S'0x3A2E'
p2126
sg6
S'PT_UNICODE'
p2127
sa(dp2128
g2
S'PR_ASSISTANT_TELEPHONE_NUMBER_A'
p2129
sg4
S'0x3A2E'
p2130
sg6
S'PT_STRING8'
p2131
sa(dp2132
g2
S'PR_HOME2_TELEPHONE_NUMBER'
p2133
sg4
S'0x3A2F'
p2134
sg6
S'PT_TSTRING'
p2135
sa(dp2136
g2
S'PR_HOME2_TELEPHONE_NUMBER_W'
p2137
sg4
S'0x3A2F'
p2138
sg6
S'PT_UNICODE'
p2139
sa(dp2140
g2
S'PR_HOME2_TELEPHONE_NUMBER_A'
p2141
sg4
S'0x3A2F'
p2142
sg6
S'PT_STRING8'
p2143
sa(dp2144
g2
S'PR_ASSISTANT'
p2145
sg4
S'0x3A30'
p2146
sg6
S'PT_TSTRING'
p2147
sa(dp2148
g2
S'PR_ASSISTANT_W'
p2149
sg4
S'0x3A30'
p2150
sg6
S'PT_UNICODE'
p2151
sa(dp2152
g2
S'PR_ASSISTANT_A'
p2153
sg4
S'0x3A30'
p2154
sg6
S'PT_STRING8'
p2155
sa(dp2156
g2
S'PR_SEND_RICH_INFO'
p2157
sg4
S'0x3A40'
p2158
sg6
S'PT_BOOLEAN'
p2159
sa(dp2160
g2
S'PR_WEDDING_ANNIVERSARY'
p2161
sg4
S'0x3A41'
p2162
sg6
S'PT_SYSTIME'
p2163
sa(dp2164
g2
S'PR_BIRTHDAY'
p2165
sg4
S'0x3A42'
p2166
sg6
S'PT_SYSTIME'
p2167
sa(dp2168
g2
S'PR_HOBBIES'
p2169
sg4
S'0x3A43'
p2170
sg6
S'PT_TSTRING'
p2171
sa(dp2172
g2
S'PR_HOBBIES_W'
p2173
sg4
S'0x3A43'
p2174
sg6
S'PT_UNICODE'
p2175
sa(dp2176
g2
S'PR_HOBBIES_A'
p2177
sg4
S'0x3A43'
p2178
sg6
S'PT_STRING8'
p2179
sa(dp2180
g2
S'PR_MIDDLE_NAME'
p2181
sg4
S'0x3A44'
p2182
sg6
S'PT_TSTRING'
p2183
sa(dp2184
g2
S'PR_MIDDLE_NAME_W'
p2185
sg4
S'0x3A44'
p2186
sg6
S'PT_UNICODE'
p2187
sa(dp2188
g2
S'PR_MIDDLE_NAME_A'
p2189
sg4
S'0x3A44'
p2190
sg6
S'PT_STRING8'
p2191
sa(dp2192
g2
S'PR_DISPLAY_NAME_PREFIX'
p2193
sg4
S'0x3A45'
p2194
sg6
S'PT_TSTRING'
p2195
sa(dp2196
g2
S'PR_DISPLAY_NAME_PREFIX_W'
p2197
sg4
S'0x3A45'
p2198
sg6
S'PT_UNICODE'
p2199
sa(dp2200
g2
S'PR_DISPLAY_NAME_PREFIX_A'
p2201
sg4
S'0x3A45'
p2202
sg6
S'PT_STRING8'
p2203
sa(dp2204
g2
S'PR_PROFESSION'
p2205
sg4
S'0x3A46'
p2206
sg6
S'PT_TSTRING'
p2207
sa(dp2208
g2
S'PR_PROFESSION_W'
p2209
sg4
S'0x3A46'
p2210
sg6
S'PT_UNICODE'
p2211
sa(dp2212
g2
S'PR_PROFESSION_A'
p2213
sg4
S'0x3A46'
p2214
sg6
S'PT_STRING8'
p2215
sa(dp2216
g2
S'PR_PREFERRED_BY_NAME'
p2217
sg4
S'0x3A47'
p2218
sg6
S'PT_TSTRING'
p2219
sa(dp2220
g2
S'PR_PREFERRED_BY_NAME_W'
p2221
sg4
S'0x3A47'
p2222
sg6
S'PT_UNICODE'
p2223
sa(dp2224
g2
S'PR_PREFERRED_BY_NAME_A'
p2225
sg4
S'0x3A47'
p2226
sg6
S'PT_STRING8'
p2227
sa(dp2228
g2
S'PR_SPOUSE_NAME'
p2229
sg4
S'0x3A48'
p2230
sg6
S'PT_TSTRING'
p2231
sa(dp2232
g2
S'PR_SPOUSE_NAME_W'
p2233
sg4
S'0x3A48'
p2234
sg6
S'PT_UNICODE'
p2235
sa(dp2236
g2
S'PR_SPOUSE_NAME_A'
p2237
sg4
S'0x3A48'
p2238
sg6
S'PT_STRING8'
p2239
sa(dp2240
g2
S'PR_COMPUTER_NETWORK_NAME'
p2241
sg4
S'0x3A49'
p2242
sg6
S'PT_TSTRING'
p2243
sa(dp2244
g2
S'PR_COMPUTER_NETWORK_NAME_W'
p2245
sg4
S'0x3A49'
p2246
sg6
S'PT_UNICODE'
p2247
sa(dp2248
g2
S'PR_COMPUTER_NETWORK_NAME_A'
p2249
sg4
S'0x3A49'
p2250
sg6
S'PT_STRING8'
p2251
sa(dp2252
g2
S'PR_CUSTOMER_ID'
p2253
sg4
S'0x3A4A'
p2254
sg6
S'PT_TSTRING'
p2255
sa(dp2256
g2
S'PR_CUSTOMER_ID_W'
p2257
sg4
S'0x3A4A'
p2258
sg6
S'PT_UNICODE'
p2259
sa(dp2260
g2
S'PR_CUSTOMER_ID_A'
p2261
sg4
S'0x3A4A'
p2262
sg6
S'PT_STRING8'
p2263
sa(dp2264
g2
S'PR_TTYTDD_PHONE_NUMBER'
p2265
sg4
S'0x3A4B'
p2266
sg6
S'PT_TSTRING'
p2267
sa(dp2268
g2
S'PR_TTYTDD_PHONE_NUMBER_W'
p2269
sg4
S'0x3A4B'
p2270
sg6
S'PT_UNICODE'
p2271
sa(dp2272
g2
S'PR_TTYTDD_PHONE_NUMBER_A'
p2273
sg4
S'0x3A4B'
p2274
sg6
S'PT_STRING8'
p2275
sa(dp2276
g2
S'PR_FTP_SITE'
p2277
sg4
S'0x3A4C'
p2278
sg6
S'PT_TSTRING'
p2279
sa(dp2280
g2
S'PR_FTP_SITE_W'
p2281
sg4
S'0x3A4C'
p2282
sg6
S'PT_UNICODE'
p2283
sa(dp2284
g2
S'PR_FTP_SITE_A'
p2285
sg4
S'0x3A4C'
p2286
sg6
S'PT_STRING8'
p2287
sa(dp2288
g2
S'PR_GENDER'
p2289
sg4
S'0x3A4D'
p2290
sg6
S'PT_SHORT'
p2291
sa(dp2292
g2
S'PR_MANAGER_NAME'
p2293
sg4
S'0x3A4E'
p2294
sg6
S'PT_TSTRING'
p2295
sa(dp2296
g2
S'PR_MANAGER_NAME_W'
p2297
sg4
S'0x3A4E'
p2298
sg6
S'PT_UNICODE'
p2299
sa(dp2300
g2
S'PR_MANAGER_NAME_A'
p2301
sg4
S'0x3A4E'
p2302
sg6
S'PT_STRING8'
p2303
sa(dp2304
g2
S'PR_NICKNAME'
p2305
sg4
S'0x3A4F'
p2306
sg6
S'PT_TSTRING'
p2307
sa(dp2308
g2
S'PR_NICKNAME_W'
p2309
sg4
S'0x3A4F'
p2310
sg6
S'PT_UNICODE'
p2311
sa(dp2312
g2
S'PR_NICKNAME_A'
p2313
sg4
S'0x3A4F'
p2314
sg6
S'PT_STRING8'
p2315
sa(dp2316
g2
S'PR_PERSONAL_HOME_PAGE'
p2317
sg4
S'0x3A50'
p2318
sg6
S'PT_TSTRING'
p2319
sa(dp2320
g2
S'PR_PERSONAL_HOME_PAGE_W'
p2321
sg4
S'0x3A50'
p2322
sg6
S'PT_UNICODE'
p2323
sa(dp2324
g2
S'PR_PERSONAL_HOME_PAGE_A'
p2325
sg4
S'0x3A50'
p2326
sg6
S'PT_STRING8'
p2327
sa(dp2328
g2
S'PR_BUSINESS_HOME_PAGE'
p2329
sg4
S'0x3A51'
p2330
sg6
S'PT_TSTRING'
p2331
sa(dp2332
g2
S'PR_BUSINESS_HOME_PAGE_W'
p2333
sg4
S'0x3A51'
p2334
sg6
S'PT_UNICODE'
p2335
sa(dp2336
g2
S'PR_BUSINESS_HOME_PAGE_A'
p2337
sg4
S'0x3A51'
p2338
sg6
S'PT_STRING8'
p2339
sa(dp2340
g2
S'PR_CONTACT_VERSION'
p2341
sg4
S'0x3A52'
p2342
sg6
S'PT_CLSID'
p2343
sa(dp2344
g2
S'PR_CONTACT_ENTRYIDS'
p2345
sg4
S'0x3A53'
p2346
sg6
S'PT_MV_BINARY'
p2347
sa(dp2348
g2
S'PR_CONTACT_ADDRTYPES'
p2349
sg4
S'0x3A54'
p2350
sg6
S'PT_MV_TSTRING'
p2351
sa(dp2352
g2
S'PR_CONTACT_ADDRTYPES_W'
p2353
sg4
S'0x3A54'
p2354
sg6
S'PT_MV_UNICODE'
p2355
sa(dp2356
g2
S'PR_CONTACT_ADDRTYPES_A'
p2357
sg4
S'0x3A54'
p2358
sg6
S'PT_MV_STRING8'
p2359
sa(dp2360
g2
S'PR_CONTACT_DEFAULT_ADDRESS_INDEX'
p2361
sg4
S'0x3A55'
p2362
sg6
S'PT_LONG'
p2363
sa(dp2364
g2
S'PR_CONTACT_EMAIL_ADDRESSES'
p2365
sg4
S'0x3A56'
p2366
sg6
S'PT_MV_TSTRING'
p2367
sa(dp2368
g2
S'PR_CONTACT_EMAIL_ADDRESSES_W'
p2369
sg4
S'0x3A56'
p2370
sg6
S'PT_MV_UNICODE'
p2371
sa(dp2372
g2
S'PR_CONTACT_EMAIL_ADDRESSES_A'
p2373
sg4
S'0x3A56'
p2374
sg6
S'PT_MV_STRING8'
p2375
sa(dp2376
g2
S'PR_COMPANY_MAIN_PHONE_NUMBER'
p2377
sg4
S'0x3A57'
p2378
sg6
S'PT_TSTRING'
p2379
sa(dp2380
g2
S'PR_COMPANY_MAIN_PHONE_NUMBER_W'
p2381
sg4
S'0x3A57'
p2382
sg6
S'PT_UNICODE'
p2383
sa(dp2384
g2
S'PR_COMPANY_MAIN_PHONE_NUMBER_A'
p2385
sg4
S'0x3A57'
p2386
sg6
S'PT_STRING8'
p2387
sa(dp2388
g2
S'PR_CHILDRENS_NAMES'
p2389
sg4
S'0x3A58'
p2390
sg6
S'PT_MV_TSTRING'
p2391
sa(dp2392
g2
S'PR_CHILDRENS_NAMES_W'
p2393
sg4
S'0x3A58'
p2394
sg6
S'PT_MV_UNICODE'
p2395
sa(dp2396
g2
S'PR_CHILDRENS_NAMES_A'
p2397
sg4
S'0x3A58'
p2398
sg6
S'PT_MV_STRING8'
p2399
sa(dp2400
g2
S'PR_HOME_ADDRESS_CITY'
p2401
sg4
S'0x3A59'
p2402
sg6
S'PT_TSTRING'
p2403
sa(dp2404
g2
S'PR_HOME_ADDRESS_CITY_W'
p2405
sg4
S'0x3A59'
p2406
sg6
S'PT_UNICODE'
p2407
sa(dp2408
g2
S'PR_HOME_ADDRESS_CITY_A'
p2409
sg4
S'0x3A59'
p2410
sg6
S'PT_STRING8'
p2411
sa(dp2412
g2
S'PR_HOME_ADDRESS_COUNTRY'
p2413
sg4
S'0x3A5A'
p2414
sg6
S'PT_TSTRING'
p2415
sa(dp2416
g2
S'PR_HOME_ADDRESS_COUNTRY_W'
p2417
sg4
S'0x3A5A'
p2418
sg6
S'PT_UNICODE'
p2419
sa(dp2420
g2
S'PR_HOME_ADDRESS_COUNTRY_A'
p2421
sg4
S'0x3A5A'
p2422
sg6
S'PT_STRING8'
p2423
sa(dp2424
g2
S'PR_HOME_ADDRESS_POSTAL_CODE'
p2425
sg4
S'0x3A5B'
p2426
sg6
S'PT_TSTRING'
p2427
sa(dp2428
g2
S'PR_HOME_ADDRESS_POSTAL_CODE_W'
p2429
sg4
S'0x3A5B'
p2430
sg6
S'PT_UNICODE'
p2431
sa(dp2432
g2
S'PR_HOME_ADDRESS_POSTAL_CODE_A'
p2433
sg4
S'0x3A5B'
p2434
sg6
S'PT_STRING8'
p2435
sa(dp2436
g2
S'PR_HOME_ADDRESS_STATE_OR_PROVINCE'
p2437
sg4
S'0x3A5C'
p2438
sg6
S'PT_TSTRING'
p2439
sa(dp2440
g2
S'PR_HOME_ADDRESS_STATE_OR_PROVINCE_W'
p2441
sg4
S'0x3A5C'
p2442
sg6
S'PT_UNICODE'
p2443
sa(dp2444
g2
S'PR_HOME_ADDRESS_STATE_OR_PROVINCE_A'
p2445
sg4
S'0x3A5C'
p2446
sg6
S'PT_STRING8'
p2447
sa(dp2448
g2
S'PR_HOME_ADDRESS_STREET'
p2449
sg4
S'0x3A5D'
p2450
sg6
S'PT_TSTRING'
p2451
sa(dp2452
g2
S'PR_HOME_ADDRESS_STREET_W'
p2453
sg4
S'0x3A5D'
p2454
sg6
S'PT_UNICODE'
p2455
sa(dp2456
g2
S'PR_HOME_ADDRESS_STREET_A'
p2457
sg4
S'0x3A5D'
p2458
sg6
S'PT_STRING8'
p2459
sa(dp2460
g2
S'PR_HOME_ADDRESS_POST_OFFICE_BOX'
p2461
sg4
S'0x3A5E'
p2462
sg6
S'PT_TSTRING'
p2463
sa(dp2464
g2
S'PR_HOME_ADDRESS_POST_OFFICE_BOX_W'
p2465
sg4
S'0x3A5E'
p2466
sg6
S'PT_UNICODE'
p2467
sa(dp2468
g2
S'PR_HOME_ADDRESS_POST_OFFICE_BOX_A'
p2469
sg4
S'0x3A5E'
p2470
sg6
S'PT_STRING8'
p2471
sa(dp2472
g2
S'PR_OTHER_ADDRESS_CITY'
p2473
sg4
S'0x3A5F'
p2474
sg6
S'PT_TSTRING'
p2475
sa(dp2476
g2
S'PR_OTHER_ADDRESS_CITY_W'
p2477
sg4
S'0x3A5F'
p2478
sg6
S'PT_UNICODE'
p2479
sa(dp2480
g2
S'PR_OTHER_ADDRESS_CITY_A'
p2481
sg4
S'0x3A5F'
p2482
sg6
S'PT_STRING8'
p2483
sa(dp2484
g2
S'PR_OTHER_ADDRESS_COUNTRY'
p2485
sg4
S'0x3A60'
p2486
sg6
S'PT_TSTRING'
p2487
sa(dp2488
g2
S'PR_OTHER_ADDRESS_COUNTRY_W'
p2489
sg4
S'0x3A60'
p2490
sg6
S'PT_UNICODE'
p2491
sa(dp2492
g2
S'PR_OTHER_ADDRESS_COUNTRY_A'
p2493
sg4
S'0x3A60'
p2494
sg6
S'PT_STRING8'
p2495
sa(dp2496
g2
S'PR_OTHER_ADDRESS_POSTAL_CODE'
p2497
sg4
S'0x3A61'
p2498
sg6
S'PT_TSTRING'
p2499
sa(dp2500
g2
S'PR_OTHER_ADDRESS_POSTAL_CODE_W'
p2501
sg4
S'0x3A61'
p2502
sg6
S'PT_UNICODE'
p2503
sa(dp2504
g2
S'PR_OTHER_ADDRESS_POSTAL_CODE_A'
p2505
sg4
S'0x3A61'
p2506
sg6
S'PT_STRING8'
p2507
sa(dp2508
g2
S'PR_OTHER_ADDRESS_STATE_OR_PROVINCE'
p2509
sg4
S'0x3A62'
p2510
sg6
S'PT_TSTRING'
p2511
sa(dp2512
g2
S'PR_OTHER_ADDRESS_STATE_OR_PROVINCE_W'
p2513
sg4
S'0x3A62'
p2514
sg6
S'PT_UNICODE'
p2515
sa(dp2516
g2
S'PR_OTHER_ADDRESS_STATE_OR_PROVINCE_A'
p2517
sg4
S'0x3A62'
p2518
sg6
S'PT_STRING8'
p2519
sa(dp2520
g2
S'PR_OTHER_ADDRESS_STREET'
p2521
sg4
S'0x3A63'
p2522
sg6
S'PT_TSTRING'
p2523
sa(dp2524
g2
S'PR_OTHER_ADDRESS_STREET_W'
p2525
sg4
S'0x3A63'
p2526
sg6
S'PT_UNICODE'
p2527
sa(dp2528
g2
S'PR_OTHER_ADDRESS_STREET_A'
p2529
sg4
S'0x3A63'
p2530
sg6
S'PT_STRING8'
p2531
sa(dp2532
g2
S'PR_OTHER_ADDRESS_POST_OFFICE_BOX'
p2533
sg4
S'0x3A64'
p2534
sg6
S'PT_TSTRING'
p2535
sa(dp2536
g2
S'PR_OTHER_ADDRESS_POST_OFFICE_BOX_W'
p2537
sg4
S'0x3A64'
p2538
sg6
S'PT_UNICODE'
p2539
sa(dp2540
g2
S'PR_OTHER_ADDRESS_POST_OFFICE_BOX_A'
p2541
sg4
S'0x3A64'
p2542
sg6
S'PT_STRING8'
p2543
sa(dp2544
g2
S'PR_STORE_PROVIDERS'
p2545
sg4
S'0x3D00'
p2546
sg6
S'PT_BINARY'
p2547
sa(dp2548
g2
S'PR_AB_PROVIDERS'
p2549
sg4
S'0x3D01'
p2550
sg6
S'PT_BINARY'
p2551
sa(dp2552
g2
S'PR_TRANSPORT_PROVIDERS'
p2553
sg4
S'0x3D02'
p2554
sg6
S'PT_BINARY'
p2555
sa(dp2556
g2
S'PR_DEFAULT_PROFILE'
p2557
sg4
S'0x3D04'
p2558
sg6
S'PT_BOOLEAN'
p2559
sa(dp2560
g2
S'PR_AB_SEARCH_PATH'
p2561
sg4
S'0x3D05'
p2562
sg6
S'PT_MV_BINARY'
p2563
sa(dp2564
g2
S'PR_AB_DEFAULT_DIR'
p2565
sg4
S'0x3D06'
p2566
sg6
S'PT_BINARY'
p2567
sa(dp2568
g2
S'PR_AB_DEFAULT_PAB'
p2569
sg4
S'0x3D07'
p2570
sg6
S'PT_BINARY'
p2571
sa(dp2572
g2
S'PR_FILTERING_HOOKS'
p2573
sg4
S'0x3D08'
p2574
sg6
S'PT_BINARY'
p2575
sa(dp2576
g2
S'PR_SERVICE_NAME'
p2577
sg4
S'0x3D09'
p2578
sg6
S'PT_TSTRING'
p2579
sa(dp2580
g2
S'PR_SERVICE_NAME_W'
p2581
sg4
S'0x3D09'
p2582
sg6
S'PT_UNICODE'
p2583
sa(dp2584
g2
S'PR_SERVICE_NAME_A'
p2585
sg4
S'0x3D09'
p2586
sg6
S'PT_STRING8'
p2587
sa(dp2588
g2
S'PR_SERVICE_DLL_NAME'
p2589
sg4
S'0x3D0A'
p2590
sg6
S'PT_TSTRING'
p2591
sa(dp2592
g2
S'PR_SERVICE_DLL_NAME_W'
p2593
sg4
S'0x3D0A'
p2594
sg6
S'PT_UNICODE'
p2595
sa(dp2596
g2
S'PR_SERVICE_DLL_NAME_A'
p2597
sg4
S'0x3D0A'
p2598
sg6
S'PT_STRING8'
p2599
sa(dp2600
g2
S'PR_SERVICE_ENTRY_NAME'
p2601
sg4
S'0x3D0B'
p2602
sg6
S'PT_STRING8'
p2603
sa(dp2604
g2
S'PR_SERVICE_UID'
p2605
sg4
S'0x3D0C'
p2606
sg6
S'PT_BINARY'
p2607
sa(dp2608
g2
S'PR_SERVICE_EXTRA_UIDS'
p2609
sg4
S'0x3D0D'
p2610
sg6
S'PT_BINARY'
p2611
sa(dp2612
g2
S'PR_SERVICES'
p2613
sg4
S'0x3D0E'
p2614
sg6
S'PT_BINARY'
p2615
sa(dp2616
g2
S'PR_SERVICE_SUPPORT_FILES'
p2617
sg4
S'0x3D0F'
p2618
sg6
S'PT_MV_TSTRING'
p2619
sa(dp2620
g2
S'PR_SERVICE_SUPPORT_FILES_W'
p2621
sg4
S'0x3D0F'
p2622
sg6
S'PT_MV_UNICODE'
p2623
sa(dp2624
g2
S'PR_SERVICE_SUPPORT_FILES_A'
p2625
sg4
S'0x3D0F'
p2626
sg6
S'PT_MV_STRING8'
p2627
sa(dp2628
g2
S'PR_SERVICE_DELETE_FILES'
p2629
sg4
S'0x3D10'
p2630
sg6
S'PT_MV_TSTRING'
p2631
sa(dp2632
g2
S'PR_SERVICE_DELETE_FILES_W'
p2633
sg4
S'0x3D10'
p2634
sg6
S'PT_MV_UNICODE'
p2635
sa(dp2636
g2
S'PR_SERVICE_DELETE_FILES_A'
p2637
sg4
S'0x3D10'
p2638
sg6
S'PT_MV_STRING8'
p2639
sa(dp2640
g2
S'PR_AB_SEARCH_PATH_UPDATE'
p2641
sg4
S'0x3D11'
p2642
sg6
S'PT_BINARY'
p2643
sa(dp2644
g2
S'PR_PROFILE_NAME'
p2645
sg4
S'0x3D12'
p2646
sg6
S'PT_TSTRING'
p2647
sa(dp2648
g2
S'PR_PROFILE_NAME_A'
p2649
sg4
S'0x3D12'
p2650
sg6
S'PT_STRING8'
p2651
sa(dp2652
g2
S'PR_PROFILE_NAME_W'
p2653
sg4
S'0x3D12'
p2654
sg6
S'PT_UNICODE'
p2655
sa(dp2656
g2
S'PR_IDENTITY_DISPLAY'
p2657
sg4
S'0x3E00'
p2658
sg6
S'PT_TSTRING'
p2659
sa(dp2660
g2
S'PR_IDENTITY_DISPLAY_W'
p2661
sg4
S'0x3E00'
p2662
sg6
S'PT_UNICODE'
p2663
sa(dp2664
g2
S'PR_IDENTITY_DISPLAY_A'
p2665
sg4
S'0x3E00'
p2666
sg6
S'PT_STRING8'
p2667
sa(dp2668
g2
S'PR_IDENTITY_ENTRYID'
p2669
sg4
S'0x3E01'
p2670
sg6
S'PT_BINARY'
p2671
sa(dp2672
g2
S'PR_RESOURCE_METHODS'
p2673
sg4
S'0x3E02'
p2674
sg6
S'PT_LONG'
p2675
sa(dp2676
g2
S'PR_RESOURCE_TYPE'
p2677
sg4
S'0x3E03'
p2678
sg6
S'PT_LONG'
p2679
sa(dp2680
g2
S'PR_STATUS_CODE'
p2681
sg4
S'0x3E04'
p2682
sg6
S'PT_LONG'
p2683
sa(dp2684
g2
S'PR_IDENTITY_SEARCH_KEY'
p2685
sg4
S'0x3E05'
p2686
sg6
S'PT_BINARY'
p2687
sa(dp2688
g2
S'PR_OWN_STORE_ENTRYID'
p2689
sg4
S'0x3E06'
p2690
sg6
S'PT_BINARY'
p2691
sa(dp2692
g2
S'PR_RESOURCE_PATH'
p2693
sg4
S'0x3E07'
p2694
sg6
S'PT_TSTRING'
p2695
sa(dp2696
g2
S'PR_RESOURCE_PATH_W'
p2697
sg4
S'0x3E07'
p2698
sg6
S'PT_UNICODE'
p2699
sa(dp2700
g2
S'PR_RESOURCE_PATH_A'
p2701
sg4
S'0x3E07'
p2702
sg6
S'PT_STRING8'
p2703
sa(dp2704
g2
S'PR_STATUS_STRING'
p2705
sg4
S'0x3E08'
p2706
sg6
S'PT_TSTRING'
p2707
sa(dp2708
g2
S'PR_STATUS_STRING_W'
p2709
sg4
S'0x3E08'
p2710
sg6
S'PT_UNICODE'
p2711
sa(dp2712
g2
S'PR_STATUS_STRING_A'
p2713
sg4
S'0x3E08'
p2714
sg6
S'PT_STRING8'
p2715
sa(dp2716
g2
S'PR_X400_DEFERRED_DELIVERY_CANCEL'
p2717
sg4
S'0x3E09'
p2718
sg6
S'PT_BOOLEAN'
p2719
sa(dp2720
g2
S'PR_HEADER_FOLDER_ENTRYID'
p2721
sg4
S'0x3E0A'
p2722
sg6
S'PT_BINARY'
p2723
sa(dp2724
g2
S'PR_REMOTE_PROGRESS'
p2725
sg4
S'0x3E0B'
p2726
sg6
S'PT_LONG'
p2727
sa(dp2728
g2
S'PR_REMOTE_PROGRESS_TEXT'
p2729
sg4
S'0x3E0C'
p2730
sg6
S'PT_TSTRING'
p2731
sa(dp2732
g2
S'PR_REMOTE_PROGRESS_TEXT_W'
p2733
sg4
S'0x3E0C'
p2734
sg6
S'PT_UNICODE'
p2735
sa(dp2736
g2
S'PR_REMOTE_PROGRESS_TEXT_A'
p2737
sg4
S'0x3E0C'
p2738
sg6
S'PT_STRING8'
p2739
sa(dp2740
g2
S'PR_REMOTE_VALIDATE_OK'
p2741
sg4
S'0x3E0D'
p2742
sg6
S'PT_BOOLEAN'
p2743
sa(dp2744
g2
S'PR_CONTROL_FLAGS'
p2745
sg4
S'0x3F00'
p2746
sg6
S'PT_LONG'
p2747
sa(dp2748
g2
S'PR_CONTROL_STRUCTURE'
p2749
sg4
S'0x3F01'
p2750
sg6
S'PT_BINARY'
p2751
sa(dp2752
g2
S'PR_CONTROL_TYPE'
p2753
sg4
S'0x3F02'
p2754
sg6
S'PT_LONG'
p2755
sa(dp2756
g2
S'PR_DELTAX'
p2757
sg4
S'0x3F03'
p2758
sg6
S'PT_LONG'
p2759
sa(dp2760
g2
S'PR_DELTAY'
p2761
sg4
S'0x3F04'
p2762
sg6
S'PT_LONG'
p2763
sa(dp2764
g2
S'PR_XPOS'
p2765
sg4
S'0x3F05'
p2766
sg6
S'PT_LONG'
p2767
sa(dp2768
g2
S'PR_YPOS'
p2769
sg4
S'0x3F06'
p2770
sg6
S'PT_LONG'
p2771
sa(dp2772
g2
S'PR_CONTROL_ID'
p2773
sg4
S'0x3F07'
p2774
sg6
S'PT_BINARY'
p2775
sa(dp2776
g2
S'PR_INITIAL_DETAILS_PANE'
p2777
sg4
S'0x3F08'
p2778
sg6
S'PT_LONG'
p2779
sa(dp2780
g2
S'PR_PROFILE_VERSION'
p2781
sg4
S'0x00'
p2782
sg6
S'PT_LONG'
p2783
sa(dp2784
g2
S'PR_PROFILE_CONFIG_FLAGS'
p2785
sg4
S'0x01'
p2786
sg6
S'PT_LONG'
p2787
sa(dp2788
g2
S'PR_PROFILE_HOME_SERVER'
p2789
sg4
S'0x02'
p2790
sg6
S'PT_STRING8'
p2791
sa(dp2792
g2
S'PR_PROFILE_HOME_SERVER_DN'
p2793
sg4
S'0x12'
p2794
sg6
S'PT_STRING8'
p2795
sa(dp2796
g2
S'PR_PROFILE_HOME_SERVER_ADDRS'
p2797
sg4
S'0x13'
p2798
sg6
S'PT_MV_STRING8'
p2799
sa(dp2800
g2
S'PR_PROFILE_USER'
p2801
sg4
S'0x03'
p2802
sg6
S'PT_STRING8'
p2803
sa(dp2804
g2
S'PR_PROFILE_CONNECT_FLAGS'
p2805
sg4
S'0x04'
p2806
sg6
S'PT_LONG'
p2807
sa(dp2808
g2
S'PR_PROFILE_TRANSPORT_FLAGS'
p2809
sg4
S'0x05'
p2810
sg6
S'PT_LONG'
p2811
sa(dp2812
g2
S'PR_PROFILE_UI_STATE'
p2813
sg4
S'0x06'
p2814
sg6
S'PT_LONG'
p2815
sa(dp2816
g2
S'PR_PROFILE_UNRESOLVED_NAME'
p2817
sg4
S'0x07'
p2818
sg6
S'PT_STRING8'
p2819
sa(dp2820
g2
S'PR_PROFILE_UNRESOLVED_SERVER'
p2821
sg4
S'0x08'
p2822
sg6
S'PT_STRING8'
p2823
sa(dp2824
g2
S'PR_PROFILE_BINDING_ORDER'
p2825
sg4
S'0x09'
p2826
sg6
S'PT_STRING8'
p2827
sa(dp2828
g2
S'PR_PROFILE_MAX_RESTRICT'
p2829
sg4
S'0x0D'
p2830
sg6
S'PT_LONG'
p2831
sa(dp2832
g2
S'PR_PROFILE_AB_FILES_PATH'
p2833
sg4
S'0xE'
p2834
sg6
S'PT_STRING8'
p2835
sa(dp2836
g2
S'PR_PROFILE_OFFLINE_STORE_PATH'
p2837
sg4
S'0x10'
p2838
sg6
S'PT_STRING8'
p2839
sa(dp2840
g2
S'PR_PROFILE_OFFLINE_INFO'
p2841
sg4
S'0x11'
p2842
sg6
S'PT_BINARY'
p2843
sa(dp2844
g2
S'PR_PROFILE_ADDR_INFO'
p2845
sg4
S'0x17'
p2846
sg6
S'PT_BINARY'
p2847
sa(dp2848
g2
S'PR_PROFILE_OPTIONS_DATA'
p2849
sg4
S'0x19'
p2850
sg6
S'PT_BINARY'
p2851
sa(dp2852
g2
S'PR_PROFILE_SECURE_MAILBOX'
p2853
sg4
S'0xPR_PROFILE_SECURE_MAILBOX'
p2854
sg6
S'PT_BINARY'
p2855
sa(dp2856
g2
S'PR_DISABLE_WINSOCK'
p2857
sg4
S'0x18'
p2858
sg6
S'PT_LONG'
p2859
sa(dp2860
g2
S'PR_PROFILE_AUTH_PACKAGE'
p2861
sg4
S'0x19'
p2862
sg6
S'PT_LONG'
p2863
sa(dp2864
g2
S'PR_PROFILE_RECONNECT_INTERVAL'
p2865
sg4
S'0x1a'
p2866
sg6
S'PT_LONG'
p2867
sa(dp2868
g2
S'PR_PROFILE_SERVER_VERSION'
p2869
sg4
S'0x1b'
p2870
sg6
S'PT_LONG'
p2871
sa(dp2872
g2
S'PR_PROFILE_ABP_ALLOW_RECONNECT'
p2873
sg4
S'0x39'
p2874
sg6
S'PT_LONG'
p2875
sa(dp2876
g2
S'PR_PROFILE_ABP_MTHREAD_TIMEOUT_SECS'
p2877
sg4
S'0x3A'
p2878
sg6
S'PT_LONG'
p2879
sa(dp2880
g2
S'PR_PROFILE_OPEN_FLAGS'
p2881
sg4
S'0x09'
p2882
sg6
S'PT_LONG'
p2883
sa(dp2884
g2
S'PR_PROFILE_TYPE'
p2885
sg4
S'0x0A'
p2886
sg6
S'PT_LONG'
p2887
sa(dp2888
g2
S'PR_PROFILE_MAILBOX'
p2889
sg4
S'0x0B'
p2890
sg6
S'PT_STRING8'
p2891
sa(dp2892
g2
S'PR_PROFILE_SERVER'
p2893
sg4
S'0x0C'
p2894
sg6
S'PT_STRING8'
p2895
sa(dp2896
g2
S'PR_PROFILE_SERVER_DN'
p2897
sg4
S'0x14'
p2898
sg6
S'PT_STRING8'
p2899
sa(dp2900
g2
S'PR_PROFILE_MOAB'
p2901
sg4
S'0x0B'
p2902
sg6
S'PT_STRING8'
p2903
sa(dp2904
g2
S'PR_PROFILE_MOAB_GUID'
p2905
sg4
S'0x0C'
p2906
sg6
S'PT_STRING8'
p2907
sa(dp2908
g2
S'PR_PROFILE_MOAB_SEQ'
p2909
sg4
S'0x0D'
p2910
sg6
S'PT_LONG'
p2911
sa(dp2912
g2
S'PR_GET_PROPS_EXCLUDE_PROP_ID_LIST'
p2913
sg4
S'0x0E'
p2914
sg6
S'PT_BINARY'
p2915
sa(dp2916
g2
S'PR_USER_ENTRYID'
p2917
sg4
S'0x01'
p2918
sg6
S'PT_BINARY'
p2919
sa(dp2920
g2
S'PR_USER_NAME'
p2921
sg4
S'0x02'
p2922
sg6
S'PT_STRING8'
p2923
sa(dp2924
g2
S'PR_MAILBOX_OWNER_ENTRYID'
p2925
sg4
S'0x03'
p2926
sg6
S'PT_BINARY'
p2927
sa(dp2928
g2
S'PR_MAILBOX_OWNER_NAME'
p2929
sg4
S'0x04'
p2930
sg6
S'PT_STRING8'
p2931
sa(dp2932
g2
S'PR_OOF_STATE'
p2933
sg4
S'0x05'
p2934
sg6
S'PT_BOOLEAN'
p2935
sa(dp2936
g2
S'PR_HIERARCHY_SERVER'
p2937
sg4
S'0x1B'
p2938
sg6
S'PT_TSTRING'
p2939
sa(dp2940
g2
S'PR_SCHEDULE_FOLDER_ENTRYID'
p2941
sg4
S'0x06'
p2942
sg6
S'PT_BINARY'
p2943
sa(dp2944
g2
S'PR_IPM_DAF_ENTRYID'
p2945
sg4
S'0x07'
p2946
sg6
S'PT_BINARY'
p2947
sa(dp2948
g2
S'PR_NON_IPM_SUBTREE_ENTRYID'
p2949
sg4
S'0x08'
p2950
sg6
S'PT_BINARY'
p2951
sa(dp2952
g2
S'PR_EFORMS_REGISTRY_ENTRYID'
p2953
sg4
S'0x09'
p2954
sg6
S'PT_BINARY'
p2955
sa(dp2956
g2
S'PR_SPLUS_FREE_BUSY_ENTRYID'
p2957
sg4
S'0x0A'
p2958
sg6
S'PT_BINARY'
p2959
sa(dp2960
g2
S'PR_OFFLINE_ADDRBOOK_ENTRYID'
p2961
sg4
S'0x0B'
p2962
sg6
S'PT_BINARY'
p2963
sa(dp2964
g2
S'PR_NNTP_CONTROL_FOLDER_ENTRYID'
p2965
sg4
S'0x1B'
p2966
sg6
S'PT_BINARY'
p2967
sa(dp2968
g2
S'PR_EFORMS_FOR_LOCALE_ENTRYID'
p2969
sg4
S'0x0C'
p2970
sg6
S'PT_BINARY'
p2971
sa(dp2972
g2
S'PR_FREE_BUSY_FOR_LOCAL_SITE_ENTRYID'
p2973
sg4
S'0x0D'
p2974
sg6
S'PT_BINARY'
p2975
sa(dp2976
g2
S'PR_ADDRBOOK_FOR_LOCAL_SITE_ENTRYID'
p2977
sg4
S'0x0E'
p2978
sg6
S'PT_BINARY'
p2979
sa(dp2980
g2
S'PR_NEWSGROUP_ROOT_FOLDER_ENTRYID'
p2981
sg4
S'0x1C'
p2982
sg6
S'PT_BINARY'
p2983
sa(dp2984
g2
S'PR_OFFLINE_MESSAGE_ENTRYID'
p2985
sg4
S'0x0F'
p2986
sg6
S'PT_BINARY'
p2987
sa(dp2988
g2
S'PR_IPM_FAVORITES_ENTRYID'
p2989
sg4
S'0x18'
p2990
sg6
S'PT_BINARY'
p2991
sa(dp2992
g2
S'PR_IPM_PUBLIC_FOLDERS_ENTRYID'
p2993
sg4
S'0x19'
p2994
sg6
S'PT_BINARY'
p2995
sa(dp2996
g2
S'PR_FAVORITES_DEFAULT_NAME'
p2997
sg4
S'0x1D'
p2998
sg6
S'PT_STRING8'
p2999
sa(dp3000
g2
S'PR_SYS_CONFIG_FOLDER_ENTRYID'
p3001
sg4
S'0x1E'
p3002
sg6
S'PT_BINARY'
p3003
sa(dp3004
g2
S'PR_NNTP_ARTICLE_FOLDER_ENTRYID'
p3005
sg4
S'0x1A'
p3006
sg6
S'PT_BINARY'
p3007
sa(dp3008
g2
S'PR_EVENTS_ROOT_FOLDER_ENTRYID'
p3009
sg4
S'0xA'
p3010
sg6
S'PT_BINARY'
p3011
sa(dp3012
g2
S'PR_GW_MTSIN_ENTRYID'
p3013
sg4
S'0x10'
p3014
sg6
S'PT_BINARY'
p3015
sa(dp3016
g2
S'PR_GW_MTSOUT_ENTRYID'
p3017
sg4
S'0x11'
p3018
sg6
S'PT_BINARY'
p3019
sa(dp3020
g2
S'PR_TRANSFER_ENABLED'
p3021
sg4
S'0x12'
p3022
sg6
S'PT_BOOLEAN'
p3023
sa(dp3024
g2
S'PR_TEST_LINE_SPEED'
p3025
sg4
S'0x13'
p3026
sg6
S'PT_BINARY'
p3027
sa(dp3028
g2
S'PR_HIERARCHY_SYNCHRONIZER'
p3029
sg4
S'0x14'
p3030
sg6
S'PT_OBJECT'
p3031
sa(dp3032
g2
S'PR_CONTENTS_SYNCHRONIZER'
p3033
sg4
S'0x15'
p3034
sg6
S'PT_OBJECT'
p3035
sa(dp3036
g2
S'PR_COLLECTOR'
p3037
sg4
S'0x16'
p3038
sg6
S'PT_OBJECT'
p3039
sa(dp3040
g2
S'PR_FAST_TRANSFER'
p3041
sg4
S'0x17'
p3042
sg6
S'PT_OBJECT'
p3043
sa(dp3044
g2
S'PR_CHANGE_ADVISOR'
p3045
sg4
S'0x1C'
p3046
sg6
S'PT_OBJECT'
p3047
sa(dp3048
g2
S'PR_CHANGE_NOTIFICATION_GUID'
p3049
sg4
S'0x1F'
p3050
sg6
S'PT_CLSID'
p3051
sa(dp3052
g2
S'PR_STORE_OFFLINE'
p3053
sg4
S'0x1A'
p3054
sg6
S'PT_BOOLEAN'
p3055
sa(dp3056
g2
S'PR_IN_TRANSIT'
p3057
sg4
S'0xPR_IN_TRANSIT'
p3058
sg6
S'PT_BOOLEAN'
p3059
sa(dp3060
g2
S'PR_REPLICATION_STYLE'
p3061
sg4
S'0xPR_REPLICATION_STYLE'
p3062
sg6
S'PT_LONG'
p3063
sa(dp3064
g2
S'PR_REPLICATION_SCHEDULE'
p3065
sg4
S'0x01'
p3066
sg6
S'PT_BINARY'
p3067
sa(dp3068
g2
S'PR_REPLICATION_MESSAGE_PRIORITY'
p3069
sg4
S'0x02'
p3070
sg6
S'PT_LONG'
p3071
sa(dp3072
g2
S'PR_OVERALL_MSG_AGE_LIMIT'
p3073
sg4
S'0x03'
p3074
sg6
S'PT_LONG'
p3075
sa(dp3076
g2
S'PR_REPLICATION_ALWAYS_INTERVAL'
p3077
sg4
S'0x04'
p3078
sg6
S'PT_LONG'
p3079
sa(dp3080
g2
S'PR_REPLICATION_MSG_SIZE'
p3081
sg4
S'0x05'
p3082
sg6
S'PT_LONG'
p3083
sa(dp3084
g2
S'PR_SOURCE_KEY'
p3085
sg4
S'0x0'
p3086
sg6
S'PT_BINARY'
p3087
sa(dp3088
g2
S'PR_PARENT_SOURCE_KEY'
p3089
sg4
S'0x1'
p3090
sg6
S'PT_BINARY'
p3091
sa(dp3092
g2
S'PR_CHANGE_KEY'
p3093
sg4
S'0x2'
p3094
sg6
S'PT_BINARY'
p3095
sa(dp3096
g2
S'PR_PREDECESSOR_CHANGE_LIST'
p3097
sg4
S'0x3'
p3098
sg6
S'PT_BINARY'
p3099
sa(dp3100
g2
S'PR_IMPLIED_RESTRICTIONS'
p3101
sg4
S'0x0F'
p3102
sg6
S'PT_MV_BINARY'
p3103
sa(dp3104
g2
S'PR_FOLDER_CHILD_COUNT'
p3105
sg4
S'0xPR_FOLDER_CHILD_COUNT'
p3106
sg6
S'PT_LONG'
p3107
sa(dp3108
g2
S'PR_RIGHTS'
p3109
sg4
S'0x01'
p3110
sg6
S'PT_LONG'
p3111
sa(dp3112
g2
S'PR_ACL_TABLE'
p3113
sg4
S'0xPR_ACL_TABLE'
p3114
sg6
S'PT_OBJECT'
p3115
sa(dp3116
g2
S'PR_RULES_TABLE'
p3117
sg4
S'0x1'
p3118
sg6
S'PT_OBJECT'
p3119
sa(dp3120
g2
S'PR_HAS_RULES'
p3121
sg4
S'0x02'
p3122
sg6
S'PT_BOOLEAN'
p3123
sa(dp3124
g2
S'PR_HAS_MODERATOR_RULES'
p3125
sg4
S'0x07'
p3126
sg6
S'PT_BOOLEAN'
p3127
sa(dp3128
g2
S'PR_ADDRESS_BOOK_ENTRYID'
p3129
sg4
S'0x03'
p3130
sg6
S'PT_BINARY'
p3131
sa(dp3132
g2
S'PR_ACL_DATA'
p3133
sg4
S'0xPR_ACL_DATA'
p3134
sg6
S'PT_BINARY'
p3135
sa(dp3136
g2
S'PR_RULES_DATA'
p3137
sg4
S'0x1'
p3138
sg6
S'PT_BINARY'
p3139
sa(dp3140
g2
S'PR_EXTENDED_ACL_DATA'
p3141
sg4
S'0x1E'
p3142
sg6
S'PT_BINARY'
p3143
sa(dp3144
g2
S'PR_FOLDER_DESIGN_FLAGS'
p3145
sg4
S'0x2'
p3146
sg6
S'PT_LONG'
p3147
sa(dp3148
g2
S'PR_DESIGN_IN_PROGRESS'
p3149
sg4
S'0x4'
p3150
sg6
S'PT_BOOLEAN'
p3151
sa(dp3152
g2
S'PR_SECURE_ORIGINATION'
p3153
sg4
S'0x5'
p3154
sg6
S'PT_BOOLEAN'
p3155
sa(dp3156
g2
S'PR_PUBLISH_IN_ADDRESS_BOOK'
p3157
sg4
S'0x6'
p3158
sg6
S'PT_BOOLEAN'
p3159
sa(dp3160
g2
S'PR_RESOLVE_METHOD'
p3161
sg4
S'0x7'
p3162
sg6
S'PT_LONG'
p3163
sa(dp3164
g2
S'PR_ADDRESS_BOOK_DISPLAY_NAME'
p3165
sg4
S'0x8'
p3166
sg6
S'PT_TSTRING'
p3167
sa(dp3168
g2
S'PR_EFORMS_LOCALE_ID'
p3169
sg4
S'0x9'
p3170
sg6
S'PT_LONG'
p3171
sa(dp3172
g2
S'PR_REPLICA_LIST'
p3173
sg4
S'0x8'
p3174
sg6
S'PT_BINARY'
p3175
sa(dp3176
g2
S'PR_OVERALL_AGE_LIMIT'
p3177
sg4
S'0x9'
p3178
sg6
S'PT_LONG'
p3179
sa(dp3180
g2
S'PR_IS_NEWSGROUP_ANCHOR'
p3181
sg4
S'0x06'
p3182
sg6
S'PT_BOOLEAN'
p3183
sa(dp3184
g2
S'PR_IS_NEWSGROUP'
p3185
sg4
S'0x07'
p3186
sg6
S'PT_BOOLEAN'
p3187
sa(dp3188
g2
S'PR_NEWSGROUP_COMPONENT'
p3189
sg4
S'0x15'
p3190
sg6
S'PT_STRING8'
p3191
sa(dp3192
g2
S'PR_INTERNET_NEWSGROUP_NAME'
p3193
sg4
S'0x17'
p3194
sg6
S'PT_STRING8'
p3195
sa(dp3196
g2
S'PR_NEWSFEED_INFO'
p3197
sg4
S'0x16'
p3198
sg6
S'PT_BINARY'
p3199
sa(dp3200
g2
S'PR_PREVENT_MSG_CREATE'
p3201
sg4
S'0x14'
p3202
sg6
S'PT_BOOLEAN'
p3203
sa(dp3204
g2
S'PR_IMAP_INTERNAL_DATE'
p3205
sg4
S'0x15'
p3206
sg6
S'PT_SYSTIME'
p3207
sa(dp3208
g2
S'PR_INBOUND_NEWSFEED_DN'
p3209
sg4
S'0x1D'
p3210
sg6
S'PT_STRING8'
p3211
sa(dp3212
g2
S'PR_OUTBOUND_NEWSFEED_DN'
p3213
sg4
S'0x1E'
p3214
sg6
S'PT_STRING8'
p3215
sa(dp3216
g2
S'PR_INTERNET_CHARSET'
p3217
sg4
S'0xA'
p3218
sg6
S'PT_TSTRING'
p3219
sa(dp3220
g2
S'PR_PUBLIC_FOLDER_ENTRYID'
p3221
sg4
S'0x04'
p3222
sg6
S'PT_BINARY'
p3223
sa(dp3224
g2
S'PR_HIERARCHY_CHANGE_NUM'
p3225
sg4
S'0x06'
p3226
sg6
S'PT_LONG'
p3227
sa(dp3228
g2
S'PR_HAS_DAMS'
p3229
sg4
S'0x0A'
p3230
sg6
S'PT_BOOLEAN'
p3231
sa(dp3232
g2
S'PR_RULE_TRIGGER_HISTORY'
p3233
sg4
S'0x12'
p3234
sg6
S'PT_BINARY'
p3235
sa(dp3236
g2
S'PR_MOVE_TO_STORE_ENTRYID'
p3237
sg4
S'0x13'
p3238
sg6
S'PT_BINARY'
p3239
sa(dp3240
g2
S'PR_MOVE_TO_FOLDER_ENTRYID'
p3241
sg4
S'0x14'
p3242
sg6
S'PT_BINARY'
p3243
sa(dp3244
g2
S'PR_ORIGIN_ID'
p3245
sg4
S'0x0D'
p3246
sg6
S'PT_BINARY'
p3247
sa(dp3248
g2
S'PR_RANK'
p3249
sg4
S'0x82'
p3250
sg6
S'PT_LONG'
p3251
sa(dp3252
g2
S'PR_MSG_FOLD_TIME'
p3253
sg4
S'0x14'
p3254
sg6
S'PT_SYSTIME'
p3255
sa(dp3256
g2
S'PR_ICS_CHANGE_KEY'
p3257
sg4
S'0x15'
p3258
sg6
S'PT_BINARY'
p3259
sa(dp3260
g2
S'PR_DEFERRED_SEND_NUMBER'
p3261
sg4
S'0xB'
p3262
sg6
S'PT_LONG'
p3263
sa(dp3264
g2
S'PR_DEFERRED_SEND_UNITS'
p3265
sg4
S'0xC'
p3266
sg6
S'PT_LONG'
p3267
sa(dp3268
g2
S'PR_EXPIRY_NUMBER'
p3269
sg4
S'0xD'
p3270
sg6
S'PT_LONG'
p3271
sa(dp3272
g2
S'PR_EXPIRY_UNITS'
p3273
sg4
S'0xE'
p3274
sg6
S'PT_LONG'
p3275
sa(dp3276
g2
S'PR_DEFERRED_SEND_TIME'
p3277
sg4
S'0xF'
p3278
sg6
S'PT_SYSTIME'
p3279
sa(dp3280
g2
S'PR_GW_ADMIN_OPERATIONS'
p3281
sg4
S'0xPR_GW_ADMIN_OPERATIONS'
p3282
sg6
S'PT_LONG'
p3283
sa(dp3284
g2
S'PR_P1_CONTENT'
p3285
sg4
S'0x1100'
p3286
sg6
S'PT_BINARY'
p3287
sa(dp3288
g2
S'PR_P1_CONTENT_TYPE'
p3289
sg4
S'0x1101'
p3290
sg6
S'PT_BINARY'
p3291
sa(dp3292
g2
S'PR_DAM_BACK_PATCHED'
p3293
sg4
S'0x7'
p3294
sg6
S'PT_BOOLEAN'
p3295
sa(dp3296
g2
S'PR_MSG_EDITOR_FORMAT'
p3297
sg4
S'0x5909'
p3298
sg6
S'PT_LONG'
p3299
sa(dp3300
g2
S'PR_HTML'
p3301
sg4
S'0x1013'
p3302
sg6
S'PT_BINARY'
p3303
sa(dp3304
g2
S'PR_MESSAGE_CODEPAGE'
p3305
sg4
S'0x1D'
p3306
sg6
S'PT_LONG'
p3307
sa(dp3308
g2
S'PR_DELEGATED_BY_RULE'
p3309
sg4
S'0x3'
p3310
sg6
S'PT_BOOLEAN'
p3311
sa(dp3312
g2
S'PR_ORIGINATOR_NAME'
p3313
sg4
S'0x3'
p3314
sg6
S'PT_TSTRING'
p3315
sa(dp3316
g2
S'PR_ORIGINATOR_ADDR'
p3317
sg4
S'0x4'
p3318
sg6
S'PT_TSTRING'
p3319
sa(dp3320
g2
S'PR_ORIGINATOR_ADDRTYPE'
p3321
sg4
S'0x5'
p3322
sg6
S'PT_TSTRING'
p3323
sa(dp3324
g2
S'PR_ORIGINATOR_ENTRYID'
p3325
sg4
S'0x6'
p3326
sg6
S'PT_BINARY'
p3327
sa(dp3328
g2
S'PR_ARRIVAL_TIME'
p3329
sg4
S'0x7'
p3330
sg6
S'PT_SYSTIME'
p3331
sa(dp3332
g2
S'PR_TRACE_INFO'
p3333
sg4
S'0x8'
p3334
sg6
S'PT_BINARY'
p3335
sa(dp3336
g2
S'PR_INTERNAL_TRACE_INFO'
p3337
sg4
S'0x12'
p3338
sg6
S'PT_BINARY'
p3339
sa(dp3340
g2
S'PR_SUBJECT_TRACE_INFO'
p3341
sg4
S'0x9'
p3342
sg6
S'PT_BINARY'
p3343
sa(dp3344
g2
S'PR_RECIPIENT_NUMBER'
p3345
sg4
S'0xA'
p3346
sg6
S'PT_LONG'
p3347
sa(dp3348
g2
S'PR_RULE_VERSION'
p3349
sg4
S'0x1D'
p3350
sg6
S'PT_I2'
p3351
sa(dp3352
g2
S'PR_LOCALE_ID'
p3353
sg4
S'0x11'
p3354
sg6
S'PT_LONG'
p3355
sa(dp3356
g2
S'PR_SYNCEVENT_SUPPRESS_GUID'
p3357
sg4
S'0x3880'
p3358
sg6
S'PT_BINARY'
p3359
sa(dp3360
g2
S'PR_LOCK_BRANCH_ID'
p3361
sg4
S'0x3800'
p3362
sg6
S'PT_I8'
p3363
sa(dp3364
g2
S'PR_LOCK_RESOURCE_FID'
p3365
sg4
S'0x3801'
p3366
sg6
S'PT_I8'
p3367
sa(dp3368
g2
S'PR_LOCK_RESOURCE_DID'
p3369
sg4
S'0x3802'
p3370
sg6
S'PT_I8'
p3371
sa(dp3372
g2
S'PR_LOCK_RESOURCE_VID'
p3373
sg4
S'0x3803'
p3374
sg6
S'PT_I8'
p3375
sa(dp3376
g2
S'PR_LOCK_ENLISTMENT_CONTEXT'
p3377
sg4
S'0x3804'
p3378
sg6
S'PT_BINARY'
p3379
sa(dp3380
g2
S'PR_LOCK_TYPE'
p3381
sg4
S'0x3805'
p3382
sg6
S'PT_SHORT'
p3383
sa(dp3384
g2
S'PR_LOCK_SCOPE'
p3385
sg4
S'0x3806'
p3386
sg6
S'PT_SHORT'
p3387
sa(dp3388
g2
S'PR_LOCK_TRANSIENT_ID'
p3389
sg4
S'0x3807'
p3390
sg6
S'PT_BINARY'
p3391
sa(dp3392
g2
S'PR_LOCK_DEPTH'
p3393
sg4
S'0x3808'
p3394
sg6
S'PT_LONG'
p3395
sa(dp3396
g2
S'PR_LOCK_TIMEOUT'
p3397
sg4
S'0x3809'
p3398
sg6
S'PT_LONG'
p3399
sa(dp3400
g2
S'PR_LOCK_EXPIRY_TIME'
p3401
sg4
S'0x380a'
p3402
sg6
S'PT_SYSTIME'
p3403
sa(dp3404
g2
S'PR_LOCK_GLID'
p3405
sg4
S'0x380b'
p3406
sg6
S'PT_BINARY'
p3407
sa(dp3408
g2
S'PR_LOCK_NULL_URL_W'
p3409
sg4
S'0x380c'
p3410
sg6
S'PT_UNICODE'
p3411
sa.